   1               		.file	"host.c"
   2               	__SP_H__ = 0x3e
   3               	__SP_L__ = 0x3d
   4               	__SREG__ = 0x3f
   5               	__tmp_reg__ = 0
   6               	__zero_reg__ = 1
   7               		.text
   8               	.Ltext0:
   9               		.cfi_sections	.debug_frame
  10               		.section	.text.host_set_driver,"ax",@progbits
  11               	.global	host_set_driver
  13               	host_set_driver:
  14               	.LFB100:
  15               		.file 1 "../../tmk_core/common/host.c"
   1:../../tmk_core/common/host.c **** /*
   2:../../tmk_core/common/host.c **** Copyright 2011,2012 Jun Wako <wakojun@gmail.com>
   3:../../tmk_core/common/host.c **** 
   4:../../tmk_core/common/host.c **** This program is free software: you can redistribute it and/or modify
   5:../../tmk_core/common/host.c **** it under the terms of the GNU General Public License as published by
   6:../../tmk_core/common/host.c **** the Free Software Foundation, either version 2 of the License, or
   7:../../tmk_core/common/host.c **** (at your option) any later version.
   8:../../tmk_core/common/host.c **** 
   9:../../tmk_core/common/host.c **** This program is distributed in the hope that it will be useful,
  10:../../tmk_core/common/host.c **** but WITHOUT ANY WARRANTY; without even the implied warranty of
  11:../../tmk_core/common/host.c **** MERCHANTABILITY or FITNESS FOR A PARTICULAR PURPOSE.  See the
  12:../../tmk_core/common/host.c **** GNU General Public License for more details.
  13:../../tmk_core/common/host.c **** 
  14:../../tmk_core/common/host.c **** You should have received a copy of the GNU General Public License
  15:../../tmk_core/common/host.c **** along with this program.  If not, see <http://www.gnu.org/licenses/>.
  16:../../tmk_core/common/host.c **** */
  17:../../tmk_core/common/host.c **** 
  18:../../tmk_core/common/host.c **** #include <stdint.h>
  19:../../tmk_core/common/host.c **** //#include <avr/interrupt.h>
  20:../../tmk_core/common/host.c **** #include "keycode.h"
  21:../../tmk_core/common/host.c **** #include "host.h"
  22:../../tmk_core/common/host.c **** #include "util.h"
  23:../../tmk_core/common/host.c **** #include "debug.h"
  24:../../tmk_core/common/host.c **** 
  25:../../tmk_core/common/host.c **** 
  26:../../tmk_core/common/host.c **** #ifdef NKRO_ENABLE
  27:../../tmk_core/common/host.c **** bool keyboard_nkro = true;
  28:../../tmk_core/common/host.c **** #endif
  29:../../tmk_core/common/host.c **** 
  30:../../tmk_core/common/host.c **** static host_driver_t *driver;
  31:../../tmk_core/common/host.c **** static uint16_t last_system_report = 0;
  32:../../tmk_core/common/host.c **** static uint16_t last_consumer_report = 0;
  33:../../tmk_core/common/host.c **** 
  34:../../tmk_core/common/host.c **** 
  35:../../tmk_core/common/host.c **** void host_set_driver(host_driver_t *d)
  36:../../tmk_core/common/host.c **** {
  16               		.loc 1 36 0
  17               		.cfi_startproc
  18               	.LVL0:
  19               	/* prologue: function */
  20               	/* frame size = 0 */
  21               	/* stack size = 0 */
  22               	.L__stack_usage = 0
  37:../../tmk_core/common/host.c ****     driver = d;
  23               		.loc 1 37 0
  24 0000 9093 0000 		sts driver+1,r25
  25 0004 8093 0000 		sts driver,r24
  26 0008 0895      		ret
  27               		.cfi_endproc
  28               	.LFE100:
  30               		.section	.text.host_get_driver,"ax",@progbits
  31               	.global	host_get_driver
  33               	host_get_driver:
  34               	.LFB101:
  38:../../tmk_core/common/host.c **** }
  39:../../tmk_core/common/host.c **** 
  40:../../tmk_core/common/host.c **** host_driver_t *host_get_driver(void)
  41:../../tmk_core/common/host.c **** {
  35               		.loc 1 41 0
  36               		.cfi_startproc
  37               	/* prologue: function */
  38               	/* frame size = 0 */
  39               	/* stack size = 0 */
  40               	.L__stack_usage = 0
  42:../../tmk_core/common/host.c ****     return driver;
  43:../../tmk_core/common/host.c **** }
  41               		.loc 1 43 0
  42 0000 8091 0000 		lds r24,driver
  43 0004 9091 0000 		lds r25,driver+1
  44 0008 0895      		ret
  45               		.cfi_endproc
  46               	.LFE101:
  48               		.section	.text.host_keyboard_leds,"ax",@progbits
  49               	.global	host_keyboard_leds
  51               	host_keyboard_leds:
  52               	.LFB102:
  44:../../tmk_core/common/host.c **** 
  45:../../tmk_core/common/host.c **** uint8_t host_keyboard_leds(void)
  46:../../tmk_core/common/host.c **** {
  53               		.loc 1 46 0
  54               		.cfi_startproc
  55               	/* prologue: function */
  56               	/* frame size = 0 */
  57               	/* stack size = 0 */
  58               	.L__stack_usage = 0
  47:../../tmk_core/common/host.c ****     if (!driver) return 0;
  59               		.loc 1 47 0
  60 0000 E091 0000 		lds r30,driver
  61 0004 F091 0000 		lds r31,driver+1
  62 0008 3097      		sbiw r30,0
  63 000a 01F0      		breq .L4
  48:../../tmk_core/common/host.c ****     return (*driver->keyboard_leds)();
  64               		.loc 1 48 0
  65 000c 0190      		ld __tmp_reg__,Z+
  66 000e F081      		ld r31,Z
  67 0010 E02D      		mov r30,__tmp_reg__
  68 0012 0994      		ijmp
  69               	.LVL1:
  70               	.L4:
  49:../../tmk_core/common/host.c **** }
  71               		.loc 1 49 0
  72 0014 80E0      		ldi r24,0
  73 0016 0895      		ret
  74               		.cfi_endproc
  75               	.LFE102:
  77               		.section	.text.host_keyboard_send,"ax",@progbits
  78               	.global	host_keyboard_send
  80               	host_keyboard_send:
  81               	.LFB103:
  50:../../tmk_core/common/host.c **** /* send report */
  51:../../tmk_core/common/host.c **** void host_keyboard_send(report_keyboard_t *report)
  52:../../tmk_core/common/host.c **** {
  82               		.loc 1 52 0
  83               		.cfi_startproc
  84               	.LVL2:
  85 0000 EF92      		push r14
  86               	.LCFI0:
  87               		.cfi_def_cfa_offset 3
  88               		.cfi_offset 14, -2
  89 0002 FF92      		push r15
  90               	.LCFI1:
  91               		.cfi_def_cfa_offset 4
  92               		.cfi_offset 15, -3
  93 0004 0F93      		push r16
  94               	.LCFI2:
  95               		.cfi_def_cfa_offset 5
  96               		.cfi_offset 16, -4
  97 0006 1F93      		push r17
  98               	.LCFI3:
  99               		.cfi_def_cfa_offset 6
 100               		.cfi_offset 17, -5
 101 0008 CF93      		push r28
 102               	.LCFI4:
 103               		.cfi_def_cfa_offset 7
 104               		.cfi_offset 28, -6
 105 000a DF93      		push r29
 106               	.LCFI5:
 107               		.cfi_def_cfa_offset 8
 108               		.cfi_offset 29, -7
 109               	/* prologue: function */
 110               	/* frame size = 0 */
 111               	/* stack size = 6 */
 112               	.L__stack_usage = 6
  53:../../tmk_core/common/host.c ****     if (!driver) return;
 113               		.loc 1 53 0
 114 000c E091 0000 		lds r30,driver
 115 0010 F091 0000 		lds r31,driver+1
 116 0014 3097      		sbiw r30,0
 117 0016 01F0      		breq .L6
 118 0018 8C01      		movw r16,r24
  54:../../tmk_core/common/host.c ****     (*driver->send_keyboard)(report);
 119               		.loc 1 54 0
 120 001a 0280      		ldd __tmp_reg__,Z+2
 121 001c F381      		ldd r31,Z+3
 122 001e E02D      		mov r30,__tmp_reg__
 123 0020 0995      		icall
 124               	.LVL3:
  55:../../tmk_core/common/host.c **** 
  56:../../tmk_core/common/host.c ****     if (debug_keyboard) {
 125               		.loc 1 56 0
 126 0022 8091 0000 		lds r24,debug_config
 127 0026 82FF      		sbrs r24,2
 128 0028 00C0      		rjmp .L6
  57:../../tmk_core/common/host.c ****         dprint("keyboard: ");
 129               		.loc 1 57 0
 130 002a 80FF      		sbrs r24,0
 131 002c 00C0      		rjmp .L10
 132               		.loc 1 57 0 is_stmt 0 discriminator 1
 133 002e 80E0      		ldi r24,lo8(__c.4629)
 134 0030 90E0      		ldi r25,hi8(__c.4629)
 135 0032 0E94 0000 		call xputs
 136               	.LVL4:
 137               	.L10:
 138 0036 E801      		movw r28,r16
  52:../../tmk_core/common/host.c ****     if (!driver) return;
 139               		.loc 1 52 0 is_stmt 1 discriminator 1
 140 0038 10E2      		ldi r17,lo8(32)
 141               	.LBB2:
  58:../../tmk_core/common/host.c ****         for (uint8_t i = 0; i < KEYBOARD_REPORT_SIZE; i++) {
  59:../../tmk_core/common/host.c ****             dprintf("%02X ", report->raw[i]);
 142               		.loc 1 59 0 discriminator 1
 143 003a 80E0      		ldi r24,lo8(__c.4632)
 144 003c E82E      		mov r14,r24
 145 003e 80E0      		ldi r24,hi8(__c.4632)
 146 0040 F82E      		mov r15,r24
 147               	.LVL5:
 148               	.L12:
 149               		.loc 1 59 0 is_stmt 0
 150 0042 8091 0000 		lds r24,debug_config
 151 0046 80FF      		sbrs r24,0
 152 0048 00C0      		rjmp .L11
 153               		.loc 1 59 0 discriminator 1
 154 004a 8881      		ld r24,Y
 155 004c 1F92      		push __zero_reg__
 156               	.LCFI6:
 157               		.cfi_def_cfa_offset 9
 158 004e 8F93      		push r24
 159               	.LCFI7:
 160               		.cfi_def_cfa_offset 10
 161 0050 FF92      		push r15
 162               	.LCFI8:
 163               		.cfi_def_cfa_offset 11
 164 0052 EF92      		push r14
 165               	.LCFI9:
 166               		.cfi_def_cfa_offset 12
 167 0054 0E94 0000 		call __xprintf
 168               	.LVL6:
 169 0058 0F90      		pop __tmp_reg__
 170 005a 0F90      		pop __tmp_reg__
 171 005c 0F90      		pop __tmp_reg__
 172 005e 0F90      		pop __tmp_reg__
 173               	.LCFI10:
 174               		.cfi_def_cfa_offset 8
 175               	.L11:
 176               	.LVL7:
 177 0060 1150      		subi r17,lo8(-(-1))
 178 0062 2196      		adiw r28,1
 179               	.LVL8:
  58:../../tmk_core/common/host.c ****         for (uint8_t i = 0; i < KEYBOARD_REPORT_SIZE; i++) {
 180               		.loc 1 58 0 is_stmt 1 discriminator 2
 181 0064 1111      		cpse r17,__zero_reg__
 182 0066 00C0      		rjmp .L12
 183               	.LBE2:
  60:../../tmk_core/common/host.c ****         }
  61:../../tmk_core/common/host.c ****         dprint("\n");
 184               		.loc 1 61 0
 185 0068 8091 0000 		lds r24,debug_config
 186 006c 80FF      		sbrs r24,0
 187 006e 00C0      		rjmp .L6
 188               		.loc 1 61 0 is_stmt 0 discriminator 1
 189 0070 80E0      		ldi r24,lo8(__c.4637)
 190 0072 90E0      		ldi r25,hi8(__c.4637)
 191               	/* epilogue start */
  62:../../tmk_core/common/host.c ****     }
  63:../../tmk_core/common/host.c **** }
 192               		.loc 1 63 0 is_stmt 1 discriminator 1
 193 0074 DF91      		pop r29
 194 0076 CF91      		pop r28
 195               	.LVL9:
 196 0078 1F91      		pop r17
 197 007a 0F91      		pop r16
 198               	.LVL10:
 199 007c FF90      		pop r15
 200 007e EF90      		pop r14
  61:../../tmk_core/common/host.c ****     }
 201               		.loc 1 61 0 discriminator 1
 202 0080 0C94 0000 		jmp xputs
 203               	.LVL11:
 204               	.L6:
 205               	/* epilogue start */
 206               		.loc 1 63 0
 207 0084 DF91      		pop r29
 208 0086 CF91      		pop r28
 209 0088 1F91      		pop r17
 210 008a 0F91      		pop r16
 211 008c FF90      		pop r15
 212 008e EF90      		pop r14
 213 0090 0895      		ret
 214               		.cfi_endproc
 215               	.LFE103:
 217               		.section	.text.host_mouse_send,"ax",@progbits
 218               	.global	host_mouse_send
 220               	host_mouse_send:
 221               	.LFB104:
  64:../../tmk_core/common/host.c **** 
  65:../../tmk_core/common/host.c **** void host_mouse_send(report_mouse_t *report)
  66:../../tmk_core/common/host.c **** {
 222               		.loc 1 66 0
 223               		.cfi_startproc
 224               	.LVL12:
 225               	/* prologue: function */
 226               	/* frame size = 0 */
 227               	/* stack size = 0 */
 228               	.L__stack_usage = 0
  67:../../tmk_core/common/host.c ****     if (!driver) return;
 229               		.loc 1 67 0
 230 0000 E091 0000 		lds r30,driver
 231 0004 F091 0000 		lds r31,driver+1
 232 0008 3097      		sbiw r30,0
 233 000a 01F0      		breq .L26
  68:../../tmk_core/common/host.c ****     (*driver->send_mouse)(report);
 234               		.loc 1 68 0
 235 000c 0480      		ldd __tmp_reg__,Z+4
 236 000e F581      		ldd r31,Z+5
 237 0010 E02D      		mov r30,__tmp_reg__
 238 0012 0994      		ijmp
 239               	.LVL13:
 240               	.L26:
 241 0014 0895      		ret
 242               		.cfi_endproc
 243               	.LFE104:
 245               		.section	.text.host_system_send,"ax",@progbits
 246               	.global	host_system_send
 248               	host_system_send:
 249               	.LFB105:
  69:../../tmk_core/common/host.c **** }
  70:../../tmk_core/common/host.c **** 
  71:../../tmk_core/common/host.c **** void host_system_send(uint16_t report)
  72:../../tmk_core/common/host.c **** {
 250               		.loc 1 72 0
 251               		.cfi_startproc
 252               	.LVL14:
 253 0000 CF93      		push r28
 254               	.LCFI11:
 255               		.cfi_def_cfa_offset 3
 256               		.cfi_offset 28, -2
 257 0002 DF93      		push r29
 258               	.LCFI12:
 259               		.cfi_def_cfa_offset 4
 260               		.cfi_offset 29, -3
 261               	/* prologue: function */
 262               	/* frame size = 0 */
 263               	/* stack size = 2 */
 264               	.L__stack_usage = 2
  73:../../tmk_core/common/host.c ****     if (report == last_system_report) return;
 265               		.loc 1 73 0
 266 0004 2091 0000 		lds r18,last_system_report
 267 0008 3091 0000 		lds r19,last_system_report+1
 268 000c 2817      		cp r18,r24
 269 000e 3907      		cpc r19,r25
 270 0010 01F0      		breq .L28
  74:../../tmk_core/common/host.c ****     last_system_report = report;
 271               		.loc 1 74 0
 272 0012 9093 0000 		sts last_system_report+1,r25
 273 0016 8093 0000 		sts last_system_report,r24
  75:../../tmk_core/common/host.c **** 
  76:../../tmk_core/common/host.c ****     if (!driver) return;
 274               		.loc 1 76 0
 275 001a E091 0000 		lds r30,driver
 276 001e F091 0000 		lds r31,driver+1
 277 0022 3097      		sbiw r30,0
 278 0024 01F0      		breq .L28
 279 0026 EC01      		movw r28,r24
  77:../../tmk_core/common/host.c ****     (*driver->send_system)(report);
 280               		.loc 1 77 0
 281 0028 0680      		ldd __tmp_reg__,Z+6
 282 002a F781      		ldd r31,Z+7
 283 002c E02D      		mov r30,__tmp_reg__
 284 002e 0995      		icall
 285               	.LVL15:
  78:../../tmk_core/common/host.c **** 
  79:../../tmk_core/common/host.c ****     if (debug_keyboard) {
 286               		.loc 1 79 0
 287 0030 8091 0000 		lds r24,debug_config
 288 0034 82FF      		sbrs r24,2
 289 0036 00C0      		rjmp .L28
  80:../../tmk_core/common/host.c ****         dprintf("system: %04X\n", report);
 290               		.loc 1 80 0
 291 0038 80FF      		sbrs r24,0
 292 003a 00C0      		rjmp .L28
 293               		.loc 1 80 0 is_stmt 0 discriminator 1
 294 003c DF93      		push r29
 295               	.LCFI13:
 296               		.cfi_def_cfa_offset 5
 297 003e CF93      		push r28
 298               	.LCFI14:
 299               		.cfi_def_cfa_offset 6
 300 0040 80E0      		ldi r24,lo8(__c.4645)
 301 0042 90E0      		ldi r25,hi8(__c.4645)
 302 0044 9F93      		push r25
 303               	.LCFI15:
 304               		.cfi_def_cfa_offset 7
 305 0046 8F93      		push r24
 306               	.LCFI16:
 307               		.cfi_def_cfa_offset 8
 308 0048 0E94 0000 		call __xprintf
 309               	.LVL16:
 310 004c 0F90      		pop __tmp_reg__
 311 004e 0F90      		pop __tmp_reg__
 312 0050 0F90      		pop __tmp_reg__
 313 0052 0F90      		pop __tmp_reg__
 314               	.LCFI17:
 315               		.cfi_def_cfa_offset 4
 316               	.LVL17:
 317               	.L28:
 318               	/* epilogue start */
  81:../../tmk_core/common/host.c ****     }
  82:../../tmk_core/common/host.c **** }
 319               		.loc 1 82 0 is_stmt 1
 320 0054 DF91      		pop r29
 321 0056 CF91      		pop r28
 322 0058 0895      		ret
 323               		.cfi_endproc
 324               	.LFE105:
 326               		.section	.text.host_consumer_send,"ax",@progbits
 327               	.global	host_consumer_send
 329               	host_consumer_send:
 330               	.LFB106:
  83:../../tmk_core/common/host.c **** 
  84:../../tmk_core/common/host.c **** void host_consumer_send(uint16_t report)
  85:../../tmk_core/common/host.c **** {
 331               		.loc 1 85 0
 332               		.cfi_startproc
 333               	.LVL18:
 334 0000 CF93      		push r28
 335               	.LCFI18:
 336               		.cfi_def_cfa_offset 3
 337               		.cfi_offset 28, -2
 338 0002 DF93      		push r29
 339               	.LCFI19:
 340               		.cfi_def_cfa_offset 4
 341               		.cfi_offset 29, -3
 342               	/* prologue: function */
 343               	/* frame size = 0 */
 344               	/* stack size = 2 */
 345               	.L__stack_usage = 2
  86:../../tmk_core/common/host.c ****     if (report == last_consumer_report) return;
 346               		.loc 1 86 0
 347 0004 2091 0000 		lds r18,last_consumer_report
 348 0008 3091 0000 		lds r19,last_consumer_report+1
 349 000c 2817      		cp r18,r24
 350 000e 3907      		cpc r19,r25
 351 0010 01F0      		breq .L41
  87:../../tmk_core/common/host.c ****     last_consumer_report = report;
 352               		.loc 1 87 0
 353 0012 9093 0000 		sts last_consumer_report+1,r25
 354 0016 8093 0000 		sts last_consumer_report,r24
  88:../../tmk_core/common/host.c **** 
  89:../../tmk_core/common/host.c ****     if (!driver) return;
 355               		.loc 1 89 0
 356 001a E091 0000 		lds r30,driver
 357 001e F091 0000 		lds r31,driver+1
 358 0022 3097      		sbiw r30,0
 359 0024 01F0      		breq .L41
 360 0026 EC01      		movw r28,r24
  90:../../tmk_core/common/host.c ****     (*driver->send_consumer)(report);
 361               		.loc 1 90 0
 362 0028 0084      		ldd __tmp_reg__,Z+8
 363 002a F185      		ldd r31,Z+9
 364 002c E02D      		mov r30,__tmp_reg__
 365 002e 0995      		icall
 366               	.LVL19:
  91:../../tmk_core/common/host.c **** 
  92:../../tmk_core/common/host.c ****     if (debug_keyboard) {
 367               		.loc 1 92 0
 368 0030 8091 0000 		lds r24,debug_config
 369 0034 82FF      		sbrs r24,2
 370 0036 00C0      		rjmp .L41
  93:../../tmk_core/common/host.c ****         dprintf("consumer: %04X\n", report);
 371               		.loc 1 93 0
 372 0038 80FF      		sbrs r24,0
 373 003a 00C0      		rjmp .L41
 374               		.loc 1 93 0 is_stmt 0 discriminator 1
 375 003c DF93      		push r29
 376               	.LCFI20:
 377               		.cfi_def_cfa_offset 5
 378 003e CF93      		push r28
 379               	.LCFI21:
 380               		.cfi_def_cfa_offset 6
 381 0040 80E0      		ldi r24,lo8(__c.4650)
 382 0042 90E0      		ldi r25,hi8(__c.4650)
 383 0044 9F93      		push r25
 384               	.LCFI22:
 385               		.cfi_def_cfa_offset 7
 386 0046 8F93      		push r24
 387               	.LCFI23:
 388               		.cfi_def_cfa_offset 8
 389 0048 0E94 0000 		call __xprintf
 390               	.LVL20:
 391 004c 0F90      		pop __tmp_reg__
 392 004e 0F90      		pop __tmp_reg__
 393 0050 0F90      		pop __tmp_reg__
 394 0052 0F90      		pop __tmp_reg__
 395               	.LCFI24:
 396               		.cfi_def_cfa_offset 4
 397               	.LVL21:
 398               	.L41:
 399               	/* epilogue start */
  94:../../tmk_core/common/host.c ****     }
  95:../../tmk_core/common/host.c **** }
 400               		.loc 1 95 0 is_stmt 1
 401 0054 DF91      		pop r29
 402 0056 CF91      		pop r28
 403 0058 0895      		ret
 404               		.cfi_endproc
 405               	.LFE106:
 407               		.section	.text.host_last_system_report,"ax",@progbits
 408               	.global	host_last_system_report
 410               	host_last_system_report:
 411               	.LFB107:
  96:../../tmk_core/common/host.c **** 
  97:../../tmk_core/common/host.c **** uint16_t host_last_system_report(void)
  98:../../tmk_core/common/host.c **** {
 412               		.loc 1 98 0
 413               		.cfi_startproc
 414               	/* prologue: function */
 415               	/* frame size = 0 */
 416               	/* stack size = 0 */
 417               	.L__stack_usage = 0
  99:../../tmk_core/common/host.c ****     return last_system_report;
 100:../../tmk_core/common/host.c **** }
 418               		.loc 1 100 0
 419 0000 8091 0000 		lds r24,last_system_report
 420 0004 9091 0000 		lds r25,last_system_report+1
 421 0008 0895      		ret
 422               		.cfi_endproc
 423               	.LFE107:
 425               		.section	.text.host_last_consumer_report,"ax",@progbits
 426               	.global	host_last_consumer_report
 428               	host_last_consumer_report:
 429               	.LFB108:
 101:../../tmk_core/common/host.c **** 
 102:../../tmk_core/common/host.c **** uint16_t host_last_consumer_report(void)
 103:../../tmk_core/common/host.c **** {
 430               		.loc 1 103 0
 431               		.cfi_startproc
 432               	/* prologue: function */
 433               	/* frame size = 0 */
 434               	/* stack size = 0 */
 435               	.L__stack_usage = 0
 104:../../tmk_core/common/host.c ****     return last_consumer_report;
 105:../../tmk_core/common/host.c **** }
 436               		.loc 1 105 0
 437 0000 8091 0000 		lds r24,last_consumer_report
 438 0004 9091 0000 		lds r25,last_consumer_report+1
 439 0008 0895      		ret
 440               		.cfi_endproc
 441               	.LFE108:
 443               		.section	.progmem.data.__c.4650,"a",@progbits
 446               	__c.4650:
 447 0000 636F 6E73 		.string	"consumer: %04X\n"
 447      756D 6572 
 447      3A20 2530 
 447      3458 0A00 
 448               		.section	.progmem.data.__c.4645,"a",@progbits
 451               	__c.4645:
 452 0000 7379 7374 		.string	"system: %04X\n"
 452      656D 3A20 
 452      2530 3458 
 452      0A00 
 453               		.section	.progmem.data.__c.4637,"a",@progbits
 456               	__c.4637:
 457 0000 0A00      		.string	"\n"
 458               		.section	.progmem.data.__c.4632,"a",@progbits
 461               	__c.4632:
 462 0000 2530 3258 		.string	"%02X "
 462      2000 
 463               		.section	.progmem.data.__c.4629,"a",@progbits
 466               	__c.4629:
 467 0000 6B65 7962 		.string	"keyboard: "
 467      6F61 7264 
 467      3A20 00
 468               		.section	.bss.last_consumer_report,"aw",@nobits
 471               	last_consumer_report:
 472 0000 0000      		.zero	2
 473               		.section	.bss.last_system_report,"aw",@nobits
 476               	last_system_report:
 477 0000 0000      		.zero	2
 478               		.section	.bss.driver,"aw",@nobits
 481               	driver:
 482 0000 0000      		.zero	2
 483               	.global	keyboard_nkro
 484               		.section	.data.keyboard_nkro,"aw",@progbits
 487               	keyboard_nkro:
 488 0000 01        		.byte	1
 489               		.text
 490               	.Letext0:
 491               		.file 2 "/usr/lib/avr/include/stdint.h"
 492               		.file 3 "../../tmk_core/common/report.h"
 493               		.file 4 "../../tmk_core/common/host_driver.h"
 494               		.file 5 "../../tmk_core/common/debug.h"
 495               		.file 6 "../../tmk_core/protocol/lufa/LUFA-git/LUFA/Drivers/USB/Core/USBTask.h"
 496               		.file 7 "../../tmk_core/common/avr/xprintf.h"