   1               		.file	"lufa.c"
   2               	__SP_H__ = 0x3e
   3               	__SP_L__ = 0x3d
   4               	__SREG__ = 0x3f
   5               	__tmp_reg__ = 0
   6               	__zero_reg__ = 1
   7               		.text
   8               	.Ltext0:
   9               		.cfi_sections	.debug_frame
  10               		.section	.text.keyboard_leds,"ax",@progbits
  12               	keyboard_leds:
  13               	.LFB127:
  14               		.file 1 "../../tmk_core/protocol/lufa/lufa.c"
   1:../../tmk_core/protocol/lufa/lufa.c **** /*
   2:../../tmk_core/protocol/lufa/lufa.c ****  * Copyright 2012 Jun Wako <wakojun@gmail.com>
   3:../../tmk_core/protocol/lufa/lufa.c ****  * This file is based on:
   4:../../tmk_core/protocol/lufa/lufa.c ****  *     LUFA-120219/Demos/Device/Lowlevel/KeyboardMouse
   5:../../tmk_core/protocol/lufa/lufa.c ****  *     LUFA-120219/Demos/Device/Lowlevel/GenericHID
   6:../../tmk_core/protocol/lufa/lufa.c ****  */
   7:../../tmk_core/protocol/lufa/lufa.c **** 
   8:../../tmk_core/protocol/lufa/lufa.c **** /*
   9:../../tmk_core/protocol/lufa/lufa.c ****              LUFA Library
  10:../../tmk_core/protocol/lufa/lufa.c ****      Copyright (C) Dean Camera, 2012.
  11:../../tmk_core/protocol/lufa/lufa.c **** 
  12:../../tmk_core/protocol/lufa/lufa.c ****   dean [at] fourwalledcubicle [dot] com
  13:../../tmk_core/protocol/lufa/lufa.c ****            www.lufa-lib.org
  14:../../tmk_core/protocol/lufa/lufa.c **** */
  15:../../tmk_core/protocol/lufa/lufa.c **** 
  16:../../tmk_core/protocol/lufa/lufa.c **** /*
  17:../../tmk_core/protocol/lufa/lufa.c ****   Copyright 2012  Dean Camera (dean [at] fourwalledcubicle [dot] com)
  18:../../tmk_core/protocol/lufa/lufa.c ****   Copyright 2010  Denver Gingerich (denver [at] ossguy [dot] com)
  19:../../tmk_core/protocol/lufa/lufa.c **** 
  20:../../tmk_core/protocol/lufa/lufa.c ****   Permission to use, copy, modify, distribute, and sell this
  21:../../tmk_core/protocol/lufa/lufa.c ****   software and its documentation for any purpose is hereby granted
  22:../../tmk_core/protocol/lufa/lufa.c ****   without fee, provided that the above copyright notice appear in
  23:../../tmk_core/protocol/lufa/lufa.c ****   all copies and that both that the copyright notice and this
  24:../../tmk_core/protocol/lufa/lufa.c ****   permission notice and warranty disclaimer appear in supporting
  25:../../tmk_core/protocol/lufa/lufa.c ****   documentation, and that the name of the author not be used in
  26:../../tmk_core/protocol/lufa/lufa.c ****   advertising or publicity pertaining to distribution of the
  27:../../tmk_core/protocol/lufa/lufa.c ****   software without specific, written prior permission.
  28:../../tmk_core/protocol/lufa/lufa.c **** 
  29:../../tmk_core/protocol/lufa/lufa.c ****   The author disclaim all warranties with regard to this
  30:../../tmk_core/protocol/lufa/lufa.c ****   software, including all implied warranties of merchantability
  31:../../tmk_core/protocol/lufa/lufa.c ****   and fitness.  In no event shall the author be liable for any
  32:../../tmk_core/protocol/lufa/lufa.c ****   special, indirect or consequential damages or any damages
  33:../../tmk_core/protocol/lufa/lufa.c ****   whatsoever resulting from loss of use, data or profits, whether
  34:../../tmk_core/protocol/lufa/lufa.c ****   in an action of contract, negligence or other tortious action,
  35:../../tmk_core/protocol/lufa/lufa.c ****   arising out of or in connection with the use or performance of
  36:../../tmk_core/protocol/lufa/lufa.c ****   this software.
  37:../../tmk_core/protocol/lufa/lufa.c **** */
  38:../../tmk_core/protocol/lufa/lufa.c **** 
  39:../../tmk_core/protocol/lufa/lufa.c **** #include "report.h"
  40:../../tmk_core/protocol/lufa/lufa.c **** #include "host.h"
  41:../../tmk_core/protocol/lufa/lufa.c **** #include "host_driver.h"
  42:../../tmk_core/protocol/lufa/lufa.c **** #include "keyboard.h"
  43:../../tmk_core/protocol/lufa/lufa.c **** #include "action.h"
  44:../../tmk_core/protocol/lufa/lufa.c **** #include "led.h"
  45:../../tmk_core/protocol/lufa/lufa.c **** #include "sendchar.h"
  46:../../tmk_core/protocol/lufa/lufa.c **** #include "ringbuf.h"
  47:../../tmk_core/protocol/lufa/lufa.c **** #include "debug.h"
  48:../../tmk_core/protocol/lufa/lufa.c **** #ifdef SLEEP_LED_ENABLE
  49:../../tmk_core/protocol/lufa/lufa.c **** #include "sleep_led.h"
  50:../../tmk_core/protocol/lufa/lufa.c **** #endif
  51:../../tmk_core/protocol/lufa/lufa.c **** #include "suspend.h"
  52:../../tmk_core/protocol/lufa/lufa.c **** #include "hook.h"
  53:../../tmk_core/protocol/lufa/lufa.c **** #include "timer.h"
  54:../../tmk_core/protocol/lufa/lufa.c **** 
  55:../../tmk_core/protocol/lufa/lufa.c **** #ifdef LUFA_DEBUG_SUART
  56:../../tmk_core/protocol/lufa/lufa.c **** #include "avr/suart.h"
  57:../../tmk_core/protocol/lufa/lufa.c **** #endif
  58:../../tmk_core/protocol/lufa/lufa.c **** 
  59:../../tmk_core/protocol/lufa/lufa.c **** #include "matrix.h"
  60:../../tmk_core/protocol/lufa/lufa.c **** #include "descriptor.h"
  61:../../tmk_core/protocol/lufa/lufa.c **** #include "lufa.h"
  62:../../tmk_core/protocol/lufa/lufa.c **** 
  63:../../tmk_core/protocol/lufa/lufa.c **** 
  64:../../tmk_core/protocol/lufa/lufa.c **** //#define LUFA_DEBUG
  65:../../tmk_core/protocol/lufa/lufa.c **** 
  66:../../tmk_core/protocol/lufa/lufa.c **** 
  67:../../tmk_core/protocol/lufa/lufa.c **** uint8_t keyboard_idle = 0;
  68:../../tmk_core/protocol/lufa/lufa.c **** /* 0: Boot Protocol, 1: Report Protocol(default) */
  69:../../tmk_core/protocol/lufa/lufa.c **** uint8_t keyboard_protocol = 1;
  70:../../tmk_core/protocol/lufa/lufa.c **** static uint8_t keyboard_led_stats = 0;
  71:../../tmk_core/protocol/lufa/lufa.c **** 
  72:../../tmk_core/protocol/lufa/lufa.c **** static report_keyboard_t keyboard_report_sent;
  73:../../tmk_core/protocol/lufa/lufa.c **** 
  74:../../tmk_core/protocol/lufa/lufa.c **** 
  75:../../tmk_core/protocol/lufa/lufa.c **** /* Host driver */
  76:../../tmk_core/protocol/lufa/lufa.c **** static uint8_t keyboard_leds(void);
  77:../../tmk_core/protocol/lufa/lufa.c **** static void send_keyboard(report_keyboard_t *report);
  78:../../tmk_core/protocol/lufa/lufa.c **** static void send_mouse(report_mouse_t *report);
  79:../../tmk_core/protocol/lufa/lufa.c **** static void send_system(uint16_t data);
  80:../../tmk_core/protocol/lufa/lufa.c **** static void send_consumer(uint16_t data);
  81:../../tmk_core/protocol/lufa/lufa.c **** host_driver_t lufa_driver = {
  82:../../tmk_core/protocol/lufa/lufa.c ****     keyboard_leds,
  83:../../tmk_core/protocol/lufa/lufa.c ****     send_keyboard,
  84:../../tmk_core/protocol/lufa/lufa.c ****     send_mouse,
  85:../../tmk_core/protocol/lufa/lufa.c ****     send_system,
  86:../../tmk_core/protocol/lufa/lufa.c ****     send_consumer
  87:../../tmk_core/protocol/lufa/lufa.c **** };
  88:../../tmk_core/protocol/lufa/lufa.c **** 
  89:../../tmk_core/protocol/lufa/lufa.c **** 
  90:../../tmk_core/protocol/lufa/lufa.c **** /*******************************************************************************
  91:../../tmk_core/protocol/lufa/lufa.c ****  * Console
  92:../../tmk_core/protocol/lufa/lufa.c ****  ******************************************************************************/
  93:../../tmk_core/protocol/lufa/lufa.c **** #ifdef CONSOLE_ENABLE
  94:../../tmk_core/protocol/lufa/lufa.c **** #define SENDBUF_SIZE 256
  95:../../tmk_core/protocol/lufa/lufa.c **** static uint8_t sbuf[SENDBUF_SIZE];
  96:../../tmk_core/protocol/lufa/lufa.c **** static ringbuf_t sendbuf = {
  97:../../tmk_core/protocol/lufa/lufa.c ****     .buffer = sbuf,
  98:../../tmk_core/protocol/lufa/lufa.c ****     .head = 0,
  99:../../tmk_core/protocol/lufa/lufa.c ****     .tail = 0,
 100:../../tmk_core/protocol/lufa/lufa.c ****     .size_mask = SENDBUF_SIZE - 1
 101:../../tmk_core/protocol/lufa/lufa.c **** };
 102:../../tmk_core/protocol/lufa/lufa.c **** 
 103:../../tmk_core/protocol/lufa/lufa.c **** // TODO: Around 2500ms delay often works anyhoo but proper startup would be better
 104:../../tmk_core/protocol/lufa/lufa.c **** // 1000ms delay of hid_listen affects this probably
 105:../../tmk_core/protocol/lufa/lufa.c **** /* wait for Console startup */
 106:../../tmk_core/protocol/lufa/lufa.c **** static bool console_is_ready(void)
 107:../../tmk_core/protocol/lufa/lufa.c **** {
 108:../../tmk_core/protocol/lufa/lufa.c ****     static bool hid_listen_ready = false;
 109:../../tmk_core/protocol/lufa/lufa.c ****     if (!hid_listen_ready) {
 110:../../tmk_core/protocol/lufa/lufa.c ****         if (timer_read32() < 2500)
 111:../../tmk_core/protocol/lufa/lufa.c ****             return false;
 112:../../tmk_core/protocol/lufa/lufa.c ****         hid_listen_ready = true;
 113:../../tmk_core/protocol/lufa/lufa.c ****     }
 114:../../tmk_core/protocol/lufa/lufa.c ****     return true;
 115:../../tmk_core/protocol/lufa/lufa.c **** }
 116:../../tmk_core/protocol/lufa/lufa.c **** 
 117:../../tmk_core/protocol/lufa/lufa.c **** static bool console_putc(uint8_t c)
 118:../../tmk_core/protocol/lufa/lufa.c **** {
 119:../../tmk_core/protocol/lufa/lufa.c ****     if (!console_is_ready())
 120:../../tmk_core/protocol/lufa/lufa.c ****         goto EXIT;
 121:../../tmk_core/protocol/lufa/lufa.c **** 
 122:../../tmk_core/protocol/lufa/lufa.c ****     // return immediately if called while interrupt
 123:../../tmk_core/protocol/lufa/lufa.c ****     if (!(SREG & (1<<SREG_I)))
 124:../../tmk_core/protocol/lufa/lufa.c ****         goto EXIT;
 125:../../tmk_core/protocol/lufa/lufa.c **** 
 126:../../tmk_core/protocol/lufa/lufa.c ****     if (USB_DeviceState != DEVICE_STATE_Configured)
 127:../../tmk_core/protocol/lufa/lufa.c ****         goto EXIT;
 128:../../tmk_core/protocol/lufa/lufa.c **** 
 129:../../tmk_core/protocol/lufa/lufa.c ****     uint8_t ep = Endpoint_GetCurrentEndpoint();
 130:../../tmk_core/protocol/lufa/lufa.c **** 
 131:../../tmk_core/protocol/lufa/lufa.c ****     Endpoint_SelectEndpoint(CONSOLE_IN_EPNUM);
 132:../../tmk_core/protocol/lufa/lufa.c ****     if (!Endpoint_IsEnabled() || !Endpoint_IsConfigured()) {
 133:../../tmk_core/protocol/lufa/lufa.c ****         goto EXIT_RESTORE_EP;
 134:../../tmk_core/protocol/lufa/lufa.c ****     }
 135:../../tmk_core/protocol/lufa/lufa.c **** 
 136:../../tmk_core/protocol/lufa/lufa.c ****     // write from buffer to endpoint bank
 137:../../tmk_core/protocol/lufa/lufa.c ****     while (!ringbuf_is_empty(&sendbuf) && Endpoint_IsReadWriteAllowed()) {
 138:../../tmk_core/protocol/lufa/lufa.c ****         Endpoint_Write_8(ringbuf_get(&sendbuf));
 139:../../tmk_core/protocol/lufa/lufa.c **** 
 140:../../tmk_core/protocol/lufa/lufa.c ****         // clear bank when it is full
 141:../../tmk_core/protocol/lufa/lufa.c ****         if (!Endpoint_IsReadWriteAllowed() && Endpoint_IsINReady()) {
 142:../../tmk_core/protocol/lufa/lufa.c ****             Endpoint_ClearIN();
 143:../../tmk_core/protocol/lufa/lufa.c ****         }
 144:../../tmk_core/protocol/lufa/lufa.c ****     }
 145:../../tmk_core/protocol/lufa/lufa.c **** 
 146:../../tmk_core/protocol/lufa/lufa.c ****     // write c to bank directly if there is no others in buffer
 147:../../tmk_core/protocol/lufa/lufa.c ****     if (ringbuf_is_empty(&sendbuf) && Endpoint_IsReadWriteAllowed()) {
 148:../../tmk_core/protocol/lufa/lufa.c ****         Endpoint_Write_8(c);
 149:../../tmk_core/protocol/lufa/lufa.c ****         Endpoint_SelectEndpoint(ep);
 150:../../tmk_core/protocol/lufa/lufa.c ****         return true;
 151:../../tmk_core/protocol/lufa/lufa.c ****     }
 152:../../tmk_core/protocol/lufa/lufa.c **** 
 153:../../tmk_core/protocol/lufa/lufa.c **** EXIT_RESTORE_EP:
 154:../../tmk_core/protocol/lufa/lufa.c ****     Endpoint_SelectEndpoint(ep);
 155:../../tmk_core/protocol/lufa/lufa.c **** EXIT:
 156:../../tmk_core/protocol/lufa/lufa.c ****     return ringbuf_put(&sendbuf, c);
 157:../../tmk_core/protocol/lufa/lufa.c **** }
 158:../../tmk_core/protocol/lufa/lufa.c **** 
 159:../../tmk_core/protocol/lufa/lufa.c **** static void console_flush(void)
 160:../../tmk_core/protocol/lufa/lufa.c **** {
 161:../../tmk_core/protocol/lufa/lufa.c ****     if (!console_is_ready())
 162:../../tmk_core/protocol/lufa/lufa.c ****         return;
 163:../../tmk_core/protocol/lufa/lufa.c **** 
 164:../../tmk_core/protocol/lufa/lufa.c ****     if (USB_DeviceState != DEVICE_STATE_Configured)
 165:../../tmk_core/protocol/lufa/lufa.c ****         return;
 166:../../tmk_core/protocol/lufa/lufa.c **** 
 167:../../tmk_core/protocol/lufa/lufa.c ****     uint8_t ep = Endpoint_GetCurrentEndpoint();
 168:../../tmk_core/protocol/lufa/lufa.c **** 
 169:../../tmk_core/protocol/lufa/lufa.c ****     Endpoint_SelectEndpoint(CONSOLE_IN_EPNUM);
 170:../../tmk_core/protocol/lufa/lufa.c ****     if (!Endpoint_IsEnabled() || !Endpoint_IsConfigured()) {
 171:../../tmk_core/protocol/lufa/lufa.c ****         Endpoint_SelectEndpoint(ep);
 172:../../tmk_core/protocol/lufa/lufa.c ****         return;
 173:../../tmk_core/protocol/lufa/lufa.c ****     }
 174:../../tmk_core/protocol/lufa/lufa.c **** 
 175:../../tmk_core/protocol/lufa/lufa.c ****     // write from buffer to endpoint bank
 176:../../tmk_core/protocol/lufa/lufa.c ****     while (!ringbuf_is_empty(&sendbuf) && Endpoint_IsReadWriteAllowed()) {
 177:../../tmk_core/protocol/lufa/lufa.c ****         Endpoint_Write_8(ringbuf_get(&sendbuf));
 178:../../tmk_core/protocol/lufa/lufa.c **** 
 179:../../tmk_core/protocol/lufa/lufa.c ****         // clear bank when it is full
 180:../../tmk_core/protocol/lufa/lufa.c ****         if (!Endpoint_IsReadWriteAllowed() && Endpoint_IsINReady()) {
 181:../../tmk_core/protocol/lufa/lufa.c ****             Endpoint_ClearIN();
 182:../../tmk_core/protocol/lufa/lufa.c ****         }
 183:../../tmk_core/protocol/lufa/lufa.c ****     }
 184:../../tmk_core/protocol/lufa/lufa.c **** 
 185:../../tmk_core/protocol/lufa/lufa.c ****     // clear bank when there are chars in bank
 186:../../tmk_core/protocol/lufa/lufa.c ****     if (Endpoint_BytesInEndpoint() && Endpoint_IsINReady()) {
 187:../../tmk_core/protocol/lufa/lufa.c ****         // Windows needs to fill packet with 0
 188:../../tmk_core/protocol/lufa/lufa.c ****         while (Endpoint_IsReadWriteAllowed()) {
 189:../../tmk_core/protocol/lufa/lufa.c ****                 Endpoint_Write_8(0);
 190:../../tmk_core/protocol/lufa/lufa.c ****         }
 191:../../tmk_core/protocol/lufa/lufa.c ****         Endpoint_ClearIN();
 192:../../tmk_core/protocol/lufa/lufa.c ****     }
 193:../../tmk_core/protocol/lufa/lufa.c **** 
 194:../../tmk_core/protocol/lufa/lufa.c ****     Endpoint_SelectEndpoint(ep);
 195:../../tmk_core/protocol/lufa/lufa.c **** }
 196:../../tmk_core/protocol/lufa/lufa.c **** 
 197:../../tmk_core/protocol/lufa/lufa.c **** static void console_task(void)
 198:../../tmk_core/protocol/lufa/lufa.c **** {
 199:../../tmk_core/protocol/lufa/lufa.c ****     static uint16_t fn = 0;
 200:../../tmk_core/protocol/lufa/lufa.c ****     if (fn == USB_Device_GetFrameNumber()) {
 201:../../tmk_core/protocol/lufa/lufa.c ****         return;
 202:../../tmk_core/protocol/lufa/lufa.c ****     }
 203:../../tmk_core/protocol/lufa/lufa.c ****     fn = USB_Device_GetFrameNumber();
 204:../../tmk_core/protocol/lufa/lufa.c ****     console_flush();
 205:../../tmk_core/protocol/lufa/lufa.c **** }
 206:../../tmk_core/protocol/lufa/lufa.c **** #endif
 207:../../tmk_core/protocol/lufa/lufa.c **** 
 208:../../tmk_core/protocol/lufa/lufa.c **** 
 209:../../tmk_core/protocol/lufa/lufa.c **** /*******************************************************************************
 210:../../tmk_core/protocol/lufa/lufa.c ****  * USB Events
 211:../../tmk_core/protocol/lufa/lufa.c ****  ******************************************************************************/
 212:../../tmk_core/protocol/lufa/lufa.c **** /*
 213:../../tmk_core/protocol/lufa/lufa.c ****  * Event Order of Plug in:
 214:../../tmk_core/protocol/lufa/lufa.c ****  * 0) EVENT_USB_Device_Connect
 215:../../tmk_core/protocol/lufa/lufa.c ****  * 1) EVENT_USB_Device_Suspend
 216:../../tmk_core/protocol/lufa/lufa.c ****  * 2) EVENT_USB_Device_Reset
 217:../../tmk_core/protocol/lufa/lufa.c ****  * 3) EVENT_USB_Device_Wake
 218:../../tmk_core/protocol/lufa/lufa.c **** */
 219:../../tmk_core/protocol/lufa/lufa.c **** void EVENT_USB_Device_Connect(void)
 220:../../tmk_core/protocol/lufa/lufa.c **** {
 221:../../tmk_core/protocol/lufa/lufa.c ****     print("[C]");
 222:../../tmk_core/protocol/lufa/lufa.c ****     /* For battery powered device */
 223:../../tmk_core/protocol/lufa/lufa.c ****     if (!USB_IsInitialized) {
 224:../../tmk_core/protocol/lufa/lufa.c ****         USB_Disable();
 225:../../tmk_core/protocol/lufa/lufa.c ****         USB_Init();
 226:../../tmk_core/protocol/lufa/lufa.c ****         USB_Device_EnableSOFEvents();
 227:../../tmk_core/protocol/lufa/lufa.c ****     }
 228:../../tmk_core/protocol/lufa/lufa.c **** }
 229:../../tmk_core/protocol/lufa/lufa.c **** 
 230:../../tmk_core/protocol/lufa/lufa.c **** void EVENT_USB_Device_Disconnect(void)
 231:../../tmk_core/protocol/lufa/lufa.c **** {
 232:../../tmk_core/protocol/lufa/lufa.c ****     print("[D]");
 233:../../tmk_core/protocol/lufa/lufa.c ****     /* For battery powered device */
 234:../../tmk_core/protocol/lufa/lufa.c ****     USB_IsInitialized = false;
 235:../../tmk_core/protocol/lufa/lufa.c **** /* TODO: This doesn't work. After several plug in/outs can not be enumerated.
 236:../../tmk_core/protocol/lufa/lufa.c ****     if (USB_IsInitialized) {
 237:../../tmk_core/protocol/lufa/lufa.c ****         USB_Disable();  // Disable all interrupts
 238:../../tmk_core/protocol/lufa/lufa.c **** 	USB_Controller_Enable();
 239:../../tmk_core/protocol/lufa/lufa.c ****         USB_INT_Enable(USB_INT_VBUSTI);
 240:../../tmk_core/protocol/lufa/lufa.c ****     }
 241:../../tmk_core/protocol/lufa/lufa.c **** */
 242:../../tmk_core/protocol/lufa/lufa.c **** }
 243:../../tmk_core/protocol/lufa/lufa.c **** 
 244:../../tmk_core/protocol/lufa/lufa.c **** void EVENT_USB_Device_Reset(void)
 245:../../tmk_core/protocol/lufa/lufa.c **** {
 246:../../tmk_core/protocol/lufa/lufa.c **** #ifdef LUFA_DEBUG
 247:../../tmk_core/protocol/lufa/lufa.c ****     print("[R]");
 248:../../tmk_core/protocol/lufa/lufa.c **** #endif
 249:../../tmk_core/protocol/lufa/lufa.c **** }
 250:../../tmk_core/protocol/lufa/lufa.c **** 
 251:../../tmk_core/protocol/lufa/lufa.c **** void EVENT_USB_Device_Suspend()
 252:../../tmk_core/protocol/lufa/lufa.c **** {
 253:../../tmk_core/protocol/lufa/lufa.c **** #ifdef LUFA_DEBUG
 254:../../tmk_core/protocol/lufa/lufa.c ****     print("[S]");
 255:../../tmk_core/protocol/lufa/lufa.c **** #endif
 256:../../tmk_core/protocol/lufa/lufa.c ****     hook_usb_suspend_entry();
 257:../../tmk_core/protocol/lufa/lufa.c **** }
 258:../../tmk_core/protocol/lufa/lufa.c **** 
 259:../../tmk_core/protocol/lufa/lufa.c **** void EVENT_USB_Device_WakeUp()
 260:../../tmk_core/protocol/lufa/lufa.c **** {
 261:../../tmk_core/protocol/lufa/lufa.c **** #ifdef LUFA_DEBUG
 262:../../tmk_core/protocol/lufa/lufa.c ****     print("[W]");
 263:../../tmk_core/protocol/lufa/lufa.c **** #endif
 264:../../tmk_core/protocol/lufa/lufa.c ****     hook_usb_wakeup();
 265:../../tmk_core/protocol/lufa/lufa.c **** }
 266:../../tmk_core/protocol/lufa/lufa.c **** 
 267:../../tmk_core/protocol/lufa/lufa.c **** // called every 1ms
 268:../../tmk_core/protocol/lufa/lufa.c **** void EVENT_USB_Device_StartOfFrame(void)
 269:../../tmk_core/protocol/lufa/lufa.c **** {
 270:../../tmk_core/protocol/lufa/lufa.c **** }
 271:../../tmk_core/protocol/lufa/lufa.c **** 
 272:../../tmk_core/protocol/lufa/lufa.c **** /** Event handler for the USB_ConfigurationChanged event.
 273:../../tmk_core/protocol/lufa/lufa.c ****  * This is fired when the host sets the current configuration of the USB device after enumeration.
 274:../../tmk_core/protocol/lufa/lufa.c ****  *
 275:../../tmk_core/protocol/lufa/lufa.c ****  * ATMega32u2 supports dual bank(ping-pong mode) only on endpoint 3 and 4,
 276:../../tmk_core/protocol/lufa/lufa.c ****  * it is safe to use singl bank for all endpoints.
 277:../../tmk_core/protocol/lufa/lufa.c ****  */
 278:../../tmk_core/protocol/lufa/lufa.c **** void EVENT_USB_Device_ConfigurationChanged(void)
 279:../../tmk_core/protocol/lufa/lufa.c **** {
 280:../../tmk_core/protocol/lufa/lufa.c **** #ifdef LUFA_DEBUG
 281:../../tmk_core/protocol/lufa/lufa.c ****     print("[c]");
 282:../../tmk_core/protocol/lufa/lufa.c **** #endif
 283:../../tmk_core/protocol/lufa/lufa.c ****     bool ConfigSuccess = true;
 284:../../tmk_core/protocol/lufa/lufa.c **** 
 285:../../tmk_core/protocol/lufa/lufa.c ****     /* Setup Keyboard HID Report Endpoints */
 286:../../tmk_core/protocol/lufa/lufa.c ****     ConfigSuccess &= ENDPOINT_CONFIG(KEYBOARD_IN_EPNUM, EP_TYPE_INTERRUPT, ENDPOINT_DIR_IN,
 287:../../tmk_core/protocol/lufa/lufa.c ****                                      KEYBOARD_EPSIZE, ENDPOINT_BANK_SINGLE);
 288:../../tmk_core/protocol/lufa/lufa.c **** 
 289:../../tmk_core/protocol/lufa/lufa.c **** #ifdef MOUSE_ENABLE
 290:../../tmk_core/protocol/lufa/lufa.c ****     /* Setup Mouse HID Report Endpoint */
 291:../../tmk_core/protocol/lufa/lufa.c ****     ConfigSuccess &= ENDPOINT_CONFIG(MOUSE_IN_EPNUM, EP_TYPE_INTERRUPT, ENDPOINT_DIR_IN,
 292:../../tmk_core/protocol/lufa/lufa.c ****                                      MOUSE_EPSIZE, ENDPOINT_BANK_SINGLE);
 293:../../tmk_core/protocol/lufa/lufa.c **** #endif
 294:../../tmk_core/protocol/lufa/lufa.c **** 
 295:../../tmk_core/protocol/lufa/lufa.c **** #ifdef EXTRAKEY_ENABLE
 296:../../tmk_core/protocol/lufa/lufa.c ****     /* Setup Extra HID Report Endpoint */
 297:../../tmk_core/protocol/lufa/lufa.c ****     ConfigSuccess &= ENDPOINT_CONFIG(EXTRAKEY_IN_EPNUM, EP_TYPE_INTERRUPT, ENDPOINT_DIR_IN,
 298:../../tmk_core/protocol/lufa/lufa.c ****                                      EXTRAKEY_EPSIZE, ENDPOINT_BANK_SINGLE);
 299:../../tmk_core/protocol/lufa/lufa.c **** #endif
 300:../../tmk_core/protocol/lufa/lufa.c **** 
 301:../../tmk_core/protocol/lufa/lufa.c **** #ifdef CONSOLE_ENABLE
 302:../../tmk_core/protocol/lufa/lufa.c ****     /* Setup Console HID Report Endpoints */
 303:../../tmk_core/protocol/lufa/lufa.c ****     ConfigSuccess &= ENDPOINT_CONFIG(CONSOLE_IN_EPNUM, EP_TYPE_INTERRUPT, ENDPOINT_DIR_IN,
 304:../../tmk_core/protocol/lufa/lufa.c ****                                      CONSOLE_EPSIZE, ENDPOINT_BANK_SINGLE);
 305:../../tmk_core/protocol/lufa/lufa.c **** #if 0
 306:../../tmk_core/protocol/lufa/lufa.c ****     ConfigSuccess &= ENDPOINT_CONFIG(CONSOLE_OUT_EPNUM, EP_TYPE_INTERRUPT, ENDPOINT_DIR_OUT,
 307:../../tmk_core/protocol/lufa/lufa.c ****                                      CONSOLE_EPSIZE, ENDPOINT_BANK_SINGLE);
 308:../../tmk_core/protocol/lufa/lufa.c **** #endif
 309:../../tmk_core/protocol/lufa/lufa.c **** #endif
 310:../../tmk_core/protocol/lufa/lufa.c **** 
 311:../../tmk_core/protocol/lufa/lufa.c **** #ifdef NKRO_ENABLE
 312:../../tmk_core/protocol/lufa/lufa.c ****     /* Setup NKRO HID Report Endpoints */
 313:../../tmk_core/protocol/lufa/lufa.c ****     ConfigSuccess &= ENDPOINT_CONFIG(NKRO_IN_EPNUM, EP_TYPE_INTERRUPT, ENDPOINT_DIR_IN,
 314:../../tmk_core/protocol/lufa/lufa.c ****                                      NKRO_EPSIZE, ENDPOINT_BANK_SINGLE);
 315:../../tmk_core/protocol/lufa/lufa.c **** #endif
 316:../../tmk_core/protocol/lufa/lufa.c **** }
 317:../../tmk_core/protocol/lufa/lufa.c **** 
 318:../../tmk_core/protocol/lufa/lufa.c **** /*
 319:../../tmk_core/protocol/lufa/lufa.c **** Appendix G: HID Request Support Requirements
 320:../../tmk_core/protocol/lufa/lufa.c **** 
 321:../../tmk_core/protocol/lufa/lufa.c **** The following table enumerates the requests that need to be supported by various types of HID class
 322:../../tmk_core/protocol/lufa/lufa.c **** 
 323:../../tmk_core/protocol/lufa/lufa.c **** Device type     GetReport   SetReport   GetIdle     SetIdle     GetProtocol SetProtocol
 324:../../tmk_core/protocol/lufa/lufa.c **** ------------------------------------------------------------------------------------------
 325:../../tmk_core/protocol/lufa/lufa.c **** Boot Mouse      Required    Optional    Optional    Optional    Required    Required
 326:../../tmk_core/protocol/lufa/lufa.c **** Non-Boot Mouse  Required    Optional    Optional    Optional    Optional    Optional
 327:../../tmk_core/protocol/lufa/lufa.c **** Boot Keyboard   Required    Optional    Required    Required    Required    Required
 328:../../tmk_core/protocol/lufa/lufa.c **** Non-Boot Keybrd Required    Optional    Required    Required    Optional    Optional
 329:../../tmk_core/protocol/lufa/lufa.c **** Other Device    Required    Optional    Optional    Optional    Optional    Optional
 330:../../tmk_core/protocol/lufa/lufa.c **** */
 331:../../tmk_core/protocol/lufa/lufa.c **** /** Event handler for the USB_ControlRequest event.
 332:../../tmk_core/protocol/lufa/lufa.c ****  *  This is fired before passing along unhandled control requests to the library for processing int
 333:../../tmk_core/protocol/lufa/lufa.c ****  */
 334:../../tmk_core/protocol/lufa/lufa.c **** void EVENT_USB_Device_ControlRequest(void)
 335:../../tmk_core/protocol/lufa/lufa.c **** {
 336:../../tmk_core/protocol/lufa/lufa.c ****     uint8_t* ReportData = NULL;
 337:../../tmk_core/protocol/lufa/lufa.c ****     uint8_t  ReportSize = 0;
 338:../../tmk_core/protocol/lufa/lufa.c **** 
 339:../../tmk_core/protocol/lufa/lufa.c ****     /* Handle HID Class specific requests */
 340:../../tmk_core/protocol/lufa/lufa.c ****     switch (USB_ControlRequest.bRequest)
 341:../../tmk_core/protocol/lufa/lufa.c ****     {
 342:../../tmk_core/protocol/lufa/lufa.c ****         case HID_REQ_GetReport:
 343:../../tmk_core/protocol/lufa/lufa.c ****             if (USB_ControlRequest.bmRequestType == (REQDIR_DEVICETOHOST | REQTYPE_CLASS | REQREC_I
 344:../../tmk_core/protocol/lufa/lufa.c ****             {
 345:../../tmk_core/protocol/lufa/lufa.c ****                 Endpoint_ClearSETUP();
 346:../../tmk_core/protocol/lufa/lufa.c **** 
 347:../../tmk_core/protocol/lufa/lufa.c ****                 // Interface
 348:../../tmk_core/protocol/lufa/lufa.c ****                 switch (USB_ControlRequest.wIndex) {
 349:../../tmk_core/protocol/lufa/lufa.c ****                 case KEYBOARD_INTERFACE:
 350:../../tmk_core/protocol/lufa/lufa.c ****                     // TODO: test/check
 351:../../tmk_core/protocol/lufa/lufa.c ****                     ReportData = (uint8_t*)&keyboard_report_sent;
 352:../../tmk_core/protocol/lufa/lufa.c ****                     ReportSize = sizeof(keyboard_report_sent);
 353:../../tmk_core/protocol/lufa/lufa.c ****                     break;
 354:../../tmk_core/protocol/lufa/lufa.c ****                 }
 355:../../tmk_core/protocol/lufa/lufa.c **** 
 356:../../tmk_core/protocol/lufa/lufa.c ****                 /* Write the report data to the control endpoint */
 357:../../tmk_core/protocol/lufa/lufa.c ****                 Endpoint_Write_Control_Stream_LE(ReportData, ReportSize);
 358:../../tmk_core/protocol/lufa/lufa.c ****                 Endpoint_ClearOUT();
 359:../../tmk_core/protocol/lufa/lufa.c **** #ifdef LUFA_DEBUG
 360:../../tmk_core/protocol/lufa/lufa.c ****                 xprintf("[r%d]", USB_ControlRequest.wIndex);
 361:../../tmk_core/protocol/lufa/lufa.c **** #endif
 362:../../tmk_core/protocol/lufa/lufa.c ****             }
 363:../../tmk_core/protocol/lufa/lufa.c **** 
 364:../../tmk_core/protocol/lufa/lufa.c ****             break;
 365:../../tmk_core/protocol/lufa/lufa.c ****         case HID_REQ_SetReport:
 366:../../tmk_core/protocol/lufa/lufa.c ****             if (USB_ControlRequest.bmRequestType == (REQDIR_HOSTTODEVICE | REQTYPE_CLASS | REQREC_I
 367:../../tmk_core/protocol/lufa/lufa.c ****             {
 368:../../tmk_core/protocol/lufa/lufa.c **** 
 369:../../tmk_core/protocol/lufa/lufa.c ****                 // Interface
 370:../../tmk_core/protocol/lufa/lufa.c ****                 switch (USB_ControlRequest.wIndex) {
 371:../../tmk_core/protocol/lufa/lufa.c ****                 case KEYBOARD_INTERFACE:
 372:../../tmk_core/protocol/lufa/lufa.c **** #ifdef NKRO_ENABLE
 373:../../tmk_core/protocol/lufa/lufa.c ****                 case NKRO_INTERFACE:
 374:../../tmk_core/protocol/lufa/lufa.c **** #endif
 375:../../tmk_core/protocol/lufa/lufa.c ****                     Endpoint_ClearSETUP();
 376:../../tmk_core/protocol/lufa/lufa.c **** 
 377:../../tmk_core/protocol/lufa/lufa.c ****                     while (!(Endpoint_IsOUTReceived())) {
 378:../../tmk_core/protocol/lufa/lufa.c ****                         if (USB_DeviceState == DEVICE_STATE_Unattached)
 379:../../tmk_core/protocol/lufa/lufa.c ****                           return;
 380:../../tmk_core/protocol/lufa/lufa.c ****                     }
 381:../../tmk_core/protocol/lufa/lufa.c ****                     keyboard_led_stats = Endpoint_Read_8();
 382:../../tmk_core/protocol/lufa/lufa.c **** 
 383:../../tmk_core/protocol/lufa/lufa.c ****                     Endpoint_ClearOUT();
 384:../../tmk_core/protocol/lufa/lufa.c ****                     Endpoint_ClearStatusStage();
 385:../../tmk_core/protocol/lufa/lufa.c **** #ifdef LUFA_DEBUG
 386:../../tmk_core/protocol/lufa/lufa.c ****                     xprintf("[L%d]", USB_ControlRequest.wIndex);
 387:../../tmk_core/protocol/lufa/lufa.c **** #endif
 388:../../tmk_core/protocol/lufa/lufa.c ****                     break;
 389:../../tmk_core/protocol/lufa/lufa.c ****                 }
 390:../../tmk_core/protocol/lufa/lufa.c **** 
 391:../../tmk_core/protocol/lufa/lufa.c ****             }
 392:../../tmk_core/protocol/lufa/lufa.c **** 
 393:../../tmk_core/protocol/lufa/lufa.c ****             break;
 394:../../tmk_core/protocol/lufa/lufa.c **** 
 395:../../tmk_core/protocol/lufa/lufa.c ****         case HID_REQ_GetProtocol:
 396:../../tmk_core/protocol/lufa/lufa.c ****             if (USB_ControlRequest.bmRequestType == (REQDIR_DEVICETOHOST | REQTYPE_CLASS | REQREC_I
 397:../../tmk_core/protocol/lufa/lufa.c ****             {
 398:../../tmk_core/protocol/lufa/lufa.c ****                 if (USB_ControlRequest.wIndex == KEYBOARD_INTERFACE) {
 399:../../tmk_core/protocol/lufa/lufa.c ****                     Endpoint_ClearSETUP();
 400:../../tmk_core/protocol/lufa/lufa.c ****                     while (!(Endpoint_IsINReady()));
 401:../../tmk_core/protocol/lufa/lufa.c ****                     Endpoint_Write_8(keyboard_protocol);
 402:../../tmk_core/protocol/lufa/lufa.c ****                     Endpoint_ClearIN();
 403:../../tmk_core/protocol/lufa/lufa.c ****                     Endpoint_ClearStatusStage();
 404:../../tmk_core/protocol/lufa/lufa.c **** #ifdef LUFA_DEBUG
 405:../../tmk_core/protocol/lufa/lufa.c ****                     print("[p]");
 406:../../tmk_core/protocol/lufa/lufa.c **** #endif
 407:../../tmk_core/protocol/lufa/lufa.c ****                 }
 408:../../tmk_core/protocol/lufa/lufa.c ****             }
 409:../../tmk_core/protocol/lufa/lufa.c **** 
 410:../../tmk_core/protocol/lufa/lufa.c ****             break;
 411:../../tmk_core/protocol/lufa/lufa.c ****         case HID_REQ_SetProtocol:
 412:../../tmk_core/protocol/lufa/lufa.c ****             if (USB_ControlRequest.bmRequestType == (REQDIR_HOSTTODEVICE | REQTYPE_CLASS | REQREC_I
 413:../../tmk_core/protocol/lufa/lufa.c ****             {
 414:../../tmk_core/protocol/lufa/lufa.c ****                 if (USB_ControlRequest.wIndex == KEYBOARD_INTERFACE) {
 415:../../tmk_core/protocol/lufa/lufa.c ****                     Endpoint_ClearSETUP();
 416:../../tmk_core/protocol/lufa/lufa.c ****                     Endpoint_ClearStatusStage();
 417:../../tmk_core/protocol/lufa/lufa.c **** 
 418:../../tmk_core/protocol/lufa/lufa.c ****                     keyboard_protocol = (USB_ControlRequest.wValue & 0xFF);
 419:../../tmk_core/protocol/lufa/lufa.c ****                     clear_keyboard();
 420:../../tmk_core/protocol/lufa/lufa.c **** #ifdef LUFA_DEBUG
 421:../../tmk_core/protocol/lufa/lufa.c ****                     print("[P]");
 422:../../tmk_core/protocol/lufa/lufa.c **** #endif
 423:../../tmk_core/protocol/lufa/lufa.c ****                 }
 424:../../tmk_core/protocol/lufa/lufa.c ****             }
 425:../../tmk_core/protocol/lufa/lufa.c **** 
 426:../../tmk_core/protocol/lufa/lufa.c ****             break;
 427:../../tmk_core/protocol/lufa/lufa.c ****         case HID_REQ_SetIdle:
 428:../../tmk_core/protocol/lufa/lufa.c ****             if (USB_ControlRequest.bmRequestType == (REQDIR_HOSTTODEVICE | REQTYPE_CLASS | REQREC_I
 429:../../tmk_core/protocol/lufa/lufa.c ****             {
 430:../../tmk_core/protocol/lufa/lufa.c ****                 Endpoint_ClearSETUP();
 431:../../tmk_core/protocol/lufa/lufa.c ****                 Endpoint_ClearStatusStage();
 432:../../tmk_core/protocol/lufa/lufa.c **** 
 433:../../tmk_core/protocol/lufa/lufa.c ****                 keyboard_idle = ((USB_ControlRequest.wValue & 0xFF00) >> 8);
 434:../../tmk_core/protocol/lufa/lufa.c **** #ifdef LUFA_DEBUG
 435:../../tmk_core/protocol/lufa/lufa.c ****                 xprintf("[I%d]%d", USB_ControlRequest.wIndex, (USB_ControlRequest.wValue & 0xFF00) 
 436:../../tmk_core/protocol/lufa/lufa.c **** #endif
 437:../../tmk_core/protocol/lufa/lufa.c ****             }
 438:../../tmk_core/protocol/lufa/lufa.c **** 
 439:../../tmk_core/protocol/lufa/lufa.c ****             break;
 440:../../tmk_core/protocol/lufa/lufa.c ****         case HID_REQ_GetIdle:
 441:../../tmk_core/protocol/lufa/lufa.c ****             if (USB_ControlRequest.bmRequestType == (REQDIR_DEVICETOHOST | REQTYPE_CLASS | REQREC_I
 442:../../tmk_core/protocol/lufa/lufa.c ****             {
 443:../../tmk_core/protocol/lufa/lufa.c ****                 Endpoint_ClearSETUP();
 444:../../tmk_core/protocol/lufa/lufa.c ****                 while (!(Endpoint_IsINReady()));
 445:../../tmk_core/protocol/lufa/lufa.c ****                 Endpoint_Write_8(keyboard_idle);
 446:../../tmk_core/protocol/lufa/lufa.c ****                 Endpoint_ClearIN();
 447:../../tmk_core/protocol/lufa/lufa.c ****                 Endpoint_ClearStatusStage();
 448:../../tmk_core/protocol/lufa/lufa.c **** #ifdef LUFA_DEBUG
 449:../../tmk_core/protocol/lufa/lufa.c ****                 print("[i]");
 450:../../tmk_core/protocol/lufa/lufa.c **** #endif
 451:../../tmk_core/protocol/lufa/lufa.c ****             }
 452:../../tmk_core/protocol/lufa/lufa.c **** 
 453:../../tmk_core/protocol/lufa/lufa.c ****             break;
 454:../../tmk_core/protocol/lufa/lufa.c ****     }
 455:../../tmk_core/protocol/lufa/lufa.c **** }
 456:../../tmk_core/protocol/lufa/lufa.c **** 
 457:../../tmk_core/protocol/lufa/lufa.c **** /*******************************************************************************
 458:../../tmk_core/protocol/lufa/lufa.c ****  * Host driver
 459:../../tmk_core/protocol/lufa/lufa.c ****  ******************************************************************************/
 460:../../tmk_core/protocol/lufa/lufa.c **** static uint8_t keyboard_leds(void)
 461:../../tmk_core/protocol/lufa/lufa.c **** {
  15               		.loc 1 461 0
  16               		.cfi_startproc
  17               	/* prologue: function */
  18               	/* frame size = 0 */
  19               	/* stack size = 0 */
  20               	.L__stack_usage = 0
 462:../../tmk_core/protocol/lufa/lufa.c ****     return keyboard_led_stats;
 463:../../tmk_core/protocol/lufa/lufa.c **** }
  21               		.loc 1 463 0
  22 0000 8091 0000 		lds r24,keyboard_led_stats
  23 0004 0895      		ret
  24               		.cfi_endproc
  25               	.LFE127:
  27               		.section	.text.send_consumer,"ax",@progbits
  29               	send_consumer:
  30               	.LFB131:
 464:../../tmk_core/protocol/lufa/lufa.c **** 
 465:../../tmk_core/protocol/lufa/lufa.c **** static void send_keyboard(report_keyboard_t *report)
 466:../../tmk_core/protocol/lufa/lufa.c **** {
 467:../../tmk_core/protocol/lufa/lufa.c ****     uint8_t timeout = 128;
 468:../../tmk_core/protocol/lufa/lufa.c **** 
 469:../../tmk_core/protocol/lufa/lufa.c ****     if (USB_DeviceState != DEVICE_STATE_Configured)
 470:../../tmk_core/protocol/lufa/lufa.c ****         return;
 471:../../tmk_core/protocol/lufa/lufa.c **** 
 472:../../tmk_core/protocol/lufa/lufa.c ****     /* Select the Keyboard Report Endpoint */
 473:../../tmk_core/protocol/lufa/lufa.c **** #ifdef NKRO_ENABLE
 474:../../tmk_core/protocol/lufa/lufa.c ****     if (keyboard_protocol && keyboard_nkro) {
 475:../../tmk_core/protocol/lufa/lufa.c ****         /* Report protocol - NKRO */
 476:../../tmk_core/protocol/lufa/lufa.c ****         Endpoint_SelectEndpoint(NKRO_IN_EPNUM);
 477:../../tmk_core/protocol/lufa/lufa.c **** 
 478:../../tmk_core/protocol/lufa/lufa.c ****         /* Check if write ready for a polling interval around 1ms */
 479:../../tmk_core/protocol/lufa/lufa.c ****         while (timeout-- && !Endpoint_IsReadWriteAllowed()) _delay_us(8);
 480:../../tmk_core/protocol/lufa/lufa.c ****         if (!Endpoint_IsReadWriteAllowed()) return;
 481:../../tmk_core/protocol/lufa/lufa.c **** 
 482:../../tmk_core/protocol/lufa/lufa.c ****         /* Write Keyboard Report Data */
 483:../../tmk_core/protocol/lufa/lufa.c ****         Endpoint_Write_Stream_LE(report, NKRO_EPSIZE, NULL);
 484:../../tmk_core/protocol/lufa/lufa.c ****     }
 485:../../tmk_core/protocol/lufa/lufa.c ****     else
 486:../../tmk_core/protocol/lufa/lufa.c **** #endif
 487:../../tmk_core/protocol/lufa/lufa.c ****     {
 488:../../tmk_core/protocol/lufa/lufa.c ****         /* Boot protocol */
 489:../../tmk_core/protocol/lufa/lufa.c ****         Endpoint_SelectEndpoint(KEYBOARD_IN_EPNUM);
 490:../../tmk_core/protocol/lufa/lufa.c **** 
 491:../../tmk_core/protocol/lufa/lufa.c ****         /* Check if write ready for a polling interval around 10ms */
 492:../../tmk_core/protocol/lufa/lufa.c ****         while (timeout-- && !Endpoint_IsReadWriteAllowed()) _delay_us(80);
 493:../../tmk_core/protocol/lufa/lufa.c ****         if (!Endpoint_IsReadWriteAllowed()) return;
 494:../../tmk_core/protocol/lufa/lufa.c **** 
 495:../../tmk_core/protocol/lufa/lufa.c ****         /* Write Keyboard Report Data */
 496:../../tmk_core/protocol/lufa/lufa.c ****         Endpoint_Write_Stream_LE(report, KEYBOARD_EPSIZE, NULL);
 497:../../tmk_core/protocol/lufa/lufa.c ****     }
 498:../../tmk_core/protocol/lufa/lufa.c **** 
 499:../../tmk_core/protocol/lufa/lufa.c ****     /* Finalize the stream transfer to send the last packet */
 500:../../tmk_core/protocol/lufa/lufa.c ****     Endpoint_ClearIN();
 501:../../tmk_core/protocol/lufa/lufa.c **** 
 502:../../tmk_core/protocol/lufa/lufa.c ****     keyboard_report_sent = *report;
 503:../../tmk_core/protocol/lufa/lufa.c **** }
 504:../../tmk_core/protocol/lufa/lufa.c **** 
 505:../../tmk_core/protocol/lufa/lufa.c **** static void send_mouse(report_mouse_t *report)
 506:../../tmk_core/protocol/lufa/lufa.c **** {
 507:../../tmk_core/protocol/lufa/lufa.c **** #ifdef MOUSE_ENABLE
 508:../../tmk_core/protocol/lufa/lufa.c ****     uint8_t timeout = 255;
 509:../../tmk_core/protocol/lufa/lufa.c **** 
 510:../../tmk_core/protocol/lufa/lufa.c ****     if (USB_DeviceState != DEVICE_STATE_Configured)
 511:../../tmk_core/protocol/lufa/lufa.c ****         return;
 512:../../tmk_core/protocol/lufa/lufa.c **** 
 513:../../tmk_core/protocol/lufa/lufa.c ****     /* Select the Mouse Report Endpoint */
 514:../../tmk_core/protocol/lufa/lufa.c ****     Endpoint_SelectEndpoint(MOUSE_IN_EPNUM);
 515:../../tmk_core/protocol/lufa/lufa.c **** 
 516:../../tmk_core/protocol/lufa/lufa.c ****     /* Check if write ready for a polling interval around 10ms */
 517:../../tmk_core/protocol/lufa/lufa.c ****     while (timeout-- && !Endpoint_IsReadWriteAllowed()) _delay_us(40);
 518:../../tmk_core/protocol/lufa/lufa.c ****     if (!Endpoint_IsReadWriteAllowed()) return;
 519:../../tmk_core/protocol/lufa/lufa.c **** 
 520:../../tmk_core/protocol/lufa/lufa.c ****     /* Write Mouse Report Data */
 521:../../tmk_core/protocol/lufa/lufa.c ****     Endpoint_Write_Stream_LE(report, sizeof(report_mouse_t), NULL);
 522:../../tmk_core/protocol/lufa/lufa.c **** 
 523:../../tmk_core/protocol/lufa/lufa.c ****     /* Finalize the stream transfer to send the last packet */
 524:../../tmk_core/protocol/lufa/lufa.c ****     Endpoint_ClearIN();
 525:../../tmk_core/protocol/lufa/lufa.c **** #endif
 526:../../tmk_core/protocol/lufa/lufa.c **** }
 527:../../tmk_core/protocol/lufa/lufa.c **** 
 528:../../tmk_core/protocol/lufa/lufa.c **** static void send_system(uint16_t data)
 529:../../tmk_core/protocol/lufa/lufa.c **** {
 530:../../tmk_core/protocol/lufa/lufa.c **** #ifdef EXTRAKEY_ENABLE
 531:../../tmk_core/protocol/lufa/lufa.c ****     uint8_t timeout = 255;
 532:../../tmk_core/protocol/lufa/lufa.c **** 
 533:../../tmk_core/protocol/lufa/lufa.c ****     if (USB_DeviceState != DEVICE_STATE_Configured)
 534:../../tmk_core/protocol/lufa/lufa.c ****         return;
 535:../../tmk_core/protocol/lufa/lufa.c **** 
 536:../../tmk_core/protocol/lufa/lufa.c ****     report_extra_t r = {
 537:../../tmk_core/protocol/lufa/lufa.c ****         .report_id = REPORT_ID_SYSTEM,
 538:../../tmk_core/protocol/lufa/lufa.c ****         .usage = data - SYSTEM_POWER_DOWN + 1
 539:../../tmk_core/protocol/lufa/lufa.c ****     };
 540:../../tmk_core/protocol/lufa/lufa.c ****     Endpoint_SelectEndpoint(EXTRAKEY_IN_EPNUM);
 541:../../tmk_core/protocol/lufa/lufa.c **** 
 542:../../tmk_core/protocol/lufa/lufa.c ****     /* Check if write ready for a polling interval around 10ms */
 543:../../tmk_core/protocol/lufa/lufa.c ****     while (timeout-- && !Endpoint_IsReadWriteAllowed()) _delay_us(40);
 544:../../tmk_core/protocol/lufa/lufa.c ****     if (!Endpoint_IsReadWriteAllowed()) return;
 545:../../tmk_core/protocol/lufa/lufa.c **** 
 546:../../tmk_core/protocol/lufa/lufa.c ****     Endpoint_Write_Stream_LE(&r, sizeof(report_extra_t), NULL);
 547:../../tmk_core/protocol/lufa/lufa.c ****     Endpoint_ClearIN();
 548:../../tmk_core/protocol/lufa/lufa.c **** #endif
 549:../../tmk_core/protocol/lufa/lufa.c **** }
 550:../../tmk_core/protocol/lufa/lufa.c **** 
 551:../../tmk_core/protocol/lufa/lufa.c **** static void send_consumer(uint16_t data)
 552:../../tmk_core/protocol/lufa/lufa.c **** {
  31               		.loc 1 552 0
  32               		.cfi_startproc
  33               	.LVL0:
  34 0000 CF93      		push r28
  35               	.LCFI0:
  36               		.cfi_def_cfa_offset 3
  37               		.cfi_offset 28, -2
  38 0002 DF93      		push r29
  39               	.LCFI1:
  40               		.cfi_def_cfa_offset 4
  41               		.cfi_offset 29, -3
  42 0004 00D0      		rcall .
  43 0006 1F92      		push __zero_reg__
  44               	.LCFI2:
  45               		.cfi_def_cfa_offset 7
  46 0008 CDB7      		in r28,__SP_L__
  47 000a DEB7      		in r29,__SP_H__
  48               	.LCFI3:
  49               		.cfi_def_cfa_register 28
  50               	/* prologue: function */
  51               	/* frame size = 3 */
  52               	/* stack size = 5 */
  53               	.L__stack_usage = 5
  54 000c 9C01      		movw r18,r24
  55               	.LVL1:
 553:../../tmk_core/protocol/lufa/lufa.c **** #ifdef EXTRAKEY_ENABLE
 554:../../tmk_core/protocol/lufa/lufa.c ****     uint8_t timeout = 255;
 555:../../tmk_core/protocol/lufa/lufa.c **** 
 556:../../tmk_core/protocol/lufa/lufa.c ****     if (USB_DeviceState != DEVICE_STATE_Configured)
  56               		.loc 1 556 0
  57 000e 8091 0000 		lds r24,USB_DeviceState
  58               	.LVL2:
  59 0012 8430      		cpi r24,lo8(4)
  60 0014 01F4      		brne .L2
 557:../../tmk_core/protocol/lufa/lufa.c ****         return;
 558:../../tmk_core/protocol/lufa/lufa.c **** 
 559:../../tmk_core/protocol/lufa/lufa.c ****     report_extra_t r = {
  61               		.loc 1 559 0
  62 0016 93E0      		ldi r25,lo8(3)
  63 0018 9983      		std Y+1,r25
  64 001a 3B83      		std Y+3,r19
  65 001c 2A83      		std Y+2,r18
  66               	.LVL3:
  67               	.LBB258:
  68               	.LBB259:
  69               		.file 2 "../../tmk_core/protocol/lufa/LUFA-git/LUFA/Drivers/USB/Core/AVR8/../AVR8/Endpoint_AVR8.h"
   1:../../tmk_core/protocol/lufa/LUFA-git/LUFA/Drivers/USB/Core/AVR8/../AVR8/Endpoint_AVR8.h **** /*
   2:../../tmk_core/protocol/lufa/LUFA-git/LUFA/Drivers/USB/Core/AVR8/../AVR8/Endpoint_AVR8.h ****              LUFA Library
   3:../../tmk_core/protocol/lufa/LUFA-git/LUFA/Drivers/USB/Core/AVR8/../AVR8/Endpoint_AVR8.h ****      Copyright (C) Dean Camera, 2014.
   4:../../tmk_core/protocol/lufa/LUFA-git/LUFA/Drivers/USB/Core/AVR8/../AVR8/Endpoint_AVR8.h **** 
   5:../../tmk_core/protocol/lufa/LUFA-git/LUFA/Drivers/USB/Core/AVR8/../AVR8/Endpoint_AVR8.h ****   dean [at] fourwalledcubicle [dot] com
   6:../../tmk_core/protocol/lufa/LUFA-git/LUFA/Drivers/USB/Core/AVR8/../AVR8/Endpoint_AVR8.h ****            www.lufa-lib.org
   7:../../tmk_core/protocol/lufa/LUFA-git/LUFA/Drivers/USB/Core/AVR8/../AVR8/Endpoint_AVR8.h **** */
   8:../../tmk_core/protocol/lufa/LUFA-git/LUFA/Drivers/USB/Core/AVR8/../AVR8/Endpoint_AVR8.h **** 
   9:../../tmk_core/protocol/lufa/LUFA-git/LUFA/Drivers/USB/Core/AVR8/../AVR8/Endpoint_AVR8.h **** /*
  10:../../tmk_core/protocol/lufa/LUFA-git/LUFA/Drivers/USB/Core/AVR8/../AVR8/Endpoint_AVR8.h ****   Copyright 2014  Dean Camera (dean [at] fourwalledcubicle [dot] com)
  11:../../tmk_core/protocol/lufa/LUFA-git/LUFA/Drivers/USB/Core/AVR8/../AVR8/Endpoint_AVR8.h **** 
  12:../../tmk_core/protocol/lufa/LUFA-git/LUFA/Drivers/USB/Core/AVR8/../AVR8/Endpoint_AVR8.h ****   Permission to use, copy, modify, distribute, and sell this
  13:../../tmk_core/protocol/lufa/LUFA-git/LUFA/Drivers/USB/Core/AVR8/../AVR8/Endpoint_AVR8.h ****   software and its documentation for any purpose is hereby granted
  14:../../tmk_core/protocol/lufa/LUFA-git/LUFA/Drivers/USB/Core/AVR8/../AVR8/Endpoint_AVR8.h ****   without fee, provided that the above copyright notice appear in
  15:../../tmk_core/protocol/lufa/LUFA-git/LUFA/Drivers/USB/Core/AVR8/../AVR8/Endpoint_AVR8.h ****   all copies and that both that the copyright notice and this
  16:../../tmk_core/protocol/lufa/LUFA-git/LUFA/Drivers/USB/Core/AVR8/../AVR8/Endpoint_AVR8.h ****   permission notice and warranty disclaimer appear in supporting
  17:../../tmk_core/protocol/lufa/LUFA-git/LUFA/Drivers/USB/Core/AVR8/../AVR8/Endpoint_AVR8.h ****   documentation, and that the name of the author not be used in
  18:../../tmk_core/protocol/lufa/LUFA-git/LUFA/Drivers/USB/Core/AVR8/../AVR8/Endpoint_AVR8.h ****   advertising or publicity pertaining to distribution of the
  19:../../tmk_core/protocol/lufa/LUFA-git/LUFA/Drivers/USB/Core/AVR8/../AVR8/Endpoint_AVR8.h ****   software without specific, written prior permission.
  20:../../tmk_core/protocol/lufa/LUFA-git/LUFA/Drivers/USB/Core/AVR8/../AVR8/Endpoint_AVR8.h **** 
  21:../../tmk_core/protocol/lufa/LUFA-git/LUFA/Drivers/USB/Core/AVR8/../AVR8/Endpoint_AVR8.h ****   The author disclaims all warranties with regard to this
  22:../../tmk_core/protocol/lufa/LUFA-git/LUFA/Drivers/USB/Core/AVR8/../AVR8/Endpoint_AVR8.h ****   software, including all implied warranties of merchantability
  23:../../tmk_core/protocol/lufa/LUFA-git/LUFA/Drivers/USB/Core/AVR8/../AVR8/Endpoint_AVR8.h ****   and fitness.  In no event shall the author be liable for any
  24:../../tmk_core/protocol/lufa/LUFA-git/LUFA/Drivers/USB/Core/AVR8/../AVR8/Endpoint_AVR8.h ****   special, indirect or consequential damages or any damages
  25:../../tmk_core/protocol/lufa/LUFA-git/LUFA/Drivers/USB/Core/AVR8/../AVR8/Endpoint_AVR8.h ****   whatsoever resulting from loss of use, data or profits, whether
  26:../../tmk_core/protocol/lufa/LUFA-git/LUFA/Drivers/USB/Core/AVR8/../AVR8/Endpoint_AVR8.h ****   in an action of contract, negligence or other tortious action,
  27:../../tmk_core/protocol/lufa/LUFA-git/LUFA/Drivers/USB/Core/AVR8/../AVR8/Endpoint_AVR8.h ****   arising out of or in connection with the use or performance of
  28:../../tmk_core/protocol/lufa/LUFA-git/LUFA/Drivers/USB/Core/AVR8/../AVR8/Endpoint_AVR8.h ****   this software.
  29:../../tmk_core/protocol/lufa/LUFA-git/LUFA/Drivers/USB/Core/AVR8/../AVR8/Endpoint_AVR8.h **** */
  30:../../tmk_core/protocol/lufa/LUFA-git/LUFA/Drivers/USB/Core/AVR8/../AVR8/Endpoint_AVR8.h **** 
  31:../../tmk_core/protocol/lufa/LUFA-git/LUFA/Drivers/USB/Core/AVR8/../AVR8/Endpoint_AVR8.h **** /** \file
  32:../../tmk_core/protocol/lufa/LUFA-git/LUFA/Drivers/USB/Core/AVR8/../AVR8/Endpoint_AVR8.h ****  *  \brief USB Endpoint definitions for the AVR8 microcontrollers.
  33:../../tmk_core/protocol/lufa/LUFA-git/LUFA/Drivers/USB/Core/AVR8/../AVR8/Endpoint_AVR8.h ****  *  \copydetails Group_EndpointManagement_AVR8
  34:../../tmk_core/protocol/lufa/LUFA-git/LUFA/Drivers/USB/Core/AVR8/../AVR8/Endpoint_AVR8.h ****  *
  35:../../tmk_core/protocol/lufa/LUFA-git/LUFA/Drivers/USB/Core/AVR8/../AVR8/Endpoint_AVR8.h ****  *  \note This file should not be included directly. It is automatically included as needed by the 
  36:../../tmk_core/protocol/lufa/LUFA-git/LUFA/Drivers/USB/Core/AVR8/../AVR8/Endpoint_AVR8.h ****  *        dispatch header located in LUFA/Drivers/USB/USB.h.
  37:../../tmk_core/protocol/lufa/LUFA-git/LUFA/Drivers/USB/Core/AVR8/../AVR8/Endpoint_AVR8.h ****  */
  38:../../tmk_core/protocol/lufa/LUFA-git/LUFA/Drivers/USB/Core/AVR8/../AVR8/Endpoint_AVR8.h **** 
  39:../../tmk_core/protocol/lufa/LUFA-git/LUFA/Drivers/USB/Core/AVR8/../AVR8/Endpoint_AVR8.h **** /** \ingroup Group_EndpointRW
  40:../../tmk_core/protocol/lufa/LUFA-git/LUFA/Drivers/USB/Core/AVR8/../AVR8/Endpoint_AVR8.h ****  *  \defgroup Group_EndpointRW_AVR8 Endpoint Data Reading and Writing (AVR8)
  41:../../tmk_core/protocol/lufa/LUFA-git/LUFA/Drivers/USB/Core/AVR8/../AVR8/Endpoint_AVR8.h ****  *  \brief Endpoint data read/write definitions for the Atmel AVR8 architecture.
  42:../../tmk_core/protocol/lufa/LUFA-git/LUFA/Drivers/USB/Core/AVR8/../AVR8/Endpoint_AVR8.h ****  *
  43:../../tmk_core/protocol/lufa/LUFA-git/LUFA/Drivers/USB/Core/AVR8/../AVR8/Endpoint_AVR8.h ****  *  Functions, macros, variables, enums and types related to data reading and writing from and to e
  44:../../tmk_core/protocol/lufa/LUFA-git/LUFA/Drivers/USB/Core/AVR8/../AVR8/Endpoint_AVR8.h ****  */
  45:../../tmk_core/protocol/lufa/LUFA-git/LUFA/Drivers/USB/Core/AVR8/../AVR8/Endpoint_AVR8.h **** 
  46:../../tmk_core/protocol/lufa/LUFA-git/LUFA/Drivers/USB/Core/AVR8/../AVR8/Endpoint_AVR8.h **** /** \ingroup Group_EndpointPrimitiveRW
  47:../../tmk_core/protocol/lufa/LUFA-git/LUFA/Drivers/USB/Core/AVR8/../AVR8/Endpoint_AVR8.h ****  *  \defgroup Group_EndpointPrimitiveRW_AVR8 Read/Write of Primitive Data Types (AVR8)
  48:../../tmk_core/protocol/lufa/LUFA-git/LUFA/Drivers/USB/Core/AVR8/../AVR8/Endpoint_AVR8.h ****  *  \brief Endpoint primitive read/write definitions for the Atmel AVR8 architecture.
  49:../../tmk_core/protocol/lufa/LUFA-git/LUFA/Drivers/USB/Core/AVR8/../AVR8/Endpoint_AVR8.h ****  *
  50:../../tmk_core/protocol/lufa/LUFA-git/LUFA/Drivers/USB/Core/AVR8/../AVR8/Endpoint_AVR8.h ****  *  Functions, macros, variables, enums and types related to data reading and writing of primitive 
  51:../../tmk_core/protocol/lufa/LUFA-git/LUFA/Drivers/USB/Core/AVR8/../AVR8/Endpoint_AVR8.h ****  *  from and to endpoints.
  52:../../tmk_core/protocol/lufa/LUFA-git/LUFA/Drivers/USB/Core/AVR8/../AVR8/Endpoint_AVR8.h ****  */
  53:../../tmk_core/protocol/lufa/LUFA-git/LUFA/Drivers/USB/Core/AVR8/../AVR8/Endpoint_AVR8.h **** 
  54:../../tmk_core/protocol/lufa/LUFA-git/LUFA/Drivers/USB/Core/AVR8/../AVR8/Endpoint_AVR8.h **** /** \ingroup Group_EndpointPacketManagement
  55:../../tmk_core/protocol/lufa/LUFA-git/LUFA/Drivers/USB/Core/AVR8/../AVR8/Endpoint_AVR8.h ****  *  \defgroup Group_EndpointPacketManagement_AVR8 Endpoint Packet Management (AVR8)
  56:../../tmk_core/protocol/lufa/LUFA-git/LUFA/Drivers/USB/Core/AVR8/../AVR8/Endpoint_AVR8.h ****  *  \brief Endpoint packet management definitions for the Atmel AVR8 architecture.
  57:../../tmk_core/protocol/lufa/LUFA-git/LUFA/Drivers/USB/Core/AVR8/../AVR8/Endpoint_AVR8.h ****  *
  58:../../tmk_core/protocol/lufa/LUFA-git/LUFA/Drivers/USB/Core/AVR8/../AVR8/Endpoint_AVR8.h ****  *  Functions, macros, variables, enums and types related to packet management of endpoints.
  59:../../tmk_core/protocol/lufa/LUFA-git/LUFA/Drivers/USB/Core/AVR8/../AVR8/Endpoint_AVR8.h ****  */
  60:../../tmk_core/protocol/lufa/LUFA-git/LUFA/Drivers/USB/Core/AVR8/../AVR8/Endpoint_AVR8.h **** 
  61:../../tmk_core/protocol/lufa/LUFA-git/LUFA/Drivers/USB/Core/AVR8/../AVR8/Endpoint_AVR8.h **** /** \ingroup Group_EndpointManagement
  62:../../tmk_core/protocol/lufa/LUFA-git/LUFA/Drivers/USB/Core/AVR8/../AVR8/Endpoint_AVR8.h ****  *  \defgroup Group_EndpointManagement_AVR8 Endpoint Management (AVR8)
  63:../../tmk_core/protocol/lufa/LUFA-git/LUFA/Drivers/USB/Core/AVR8/../AVR8/Endpoint_AVR8.h ****  *  \brief Endpoint management definitions for the Atmel AVR8 architecture.
  64:../../tmk_core/protocol/lufa/LUFA-git/LUFA/Drivers/USB/Core/AVR8/../AVR8/Endpoint_AVR8.h ****  *
  65:../../tmk_core/protocol/lufa/LUFA-git/LUFA/Drivers/USB/Core/AVR8/../AVR8/Endpoint_AVR8.h ****  *  Functions, macros and enums related to endpoint management when in USB Device mode. This
  66:../../tmk_core/protocol/lufa/LUFA-git/LUFA/Drivers/USB/Core/AVR8/../AVR8/Endpoint_AVR8.h ****  *  module contains the endpoint management macros, as well as endpoint interrupt and data
  67:../../tmk_core/protocol/lufa/LUFA-git/LUFA/Drivers/USB/Core/AVR8/../AVR8/Endpoint_AVR8.h ****  *  send/receive functions for various data types.
  68:../../tmk_core/protocol/lufa/LUFA-git/LUFA/Drivers/USB/Core/AVR8/../AVR8/Endpoint_AVR8.h ****  *
  69:../../tmk_core/protocol/lufa/LUFA-git/LUFA/Drivers/USB/Core/AVR8/../AVR8/Endpoint_AVR8.h ****  *  @{
  70:../../tmk_core/protocol/lufa/LUFA-git/LUFA/Drivers/USB/Core/AVR8/../AVR8/Endpoint_AVR8.h ****  */
  71:../../tmk_core/protocol/lufa/LUFA-git/LUFA/Drivers/USB/Core/AVR8/../AVR8/Endpoint_AVR8.h **** 
  72:../../tmk_core/protocol/lufa/LUFA-git/LUFA/Drivers/USB/Core/AVR8/../AVR8/Endpoint_AVR8.h **** #ifndef __ENDPOINT_AVR8_H__
  73:../../tmk_core/protocol/lufa/LUFA-git/LUFA/Drivers/USB/Core/AVR8/../AVR8/Endpoint_AVR8.h **** #define __ENDPOINT_AVR8_H__
  74:../../tmk_core/protocol/lufa/LUFA-git/LUFA/Drivers/USB/Core/AVR8/../AVR8/Endpoint_AVR8.h **** 
  75:../../tmk_core/protocol/lufa/LUFA-git/LUFA/Drivers/USB/Core/AVR8/../AVR8/Endpoint_AVR8.h **** 	/* Includes: */
  76:../../tmk_core/protocol/lufa/LUFA-git/LUFA/Drivers/USB/Core/AVR8/../AVR8/Endpoint_AVR8.h **** 		#include "../../../../Common/Common.h"
  77:../../tmk_core/protocol/lufa/LUFA-git/LUFA/Drivers/USB/Core/AVR8/../AVR8/Endpoint_AVR8.h **** 		#include "../USBTask.h"
  78:../../tmk_core/protocol/lufa/LUFA-git/LUFA/Drivers/USB/Core/AVR8/../AVR8/Endpoint_AVR8.h **** 		#include "../USBInterrupt.h"
  79:../../tmk_core/protocol/lufa/LUFA-git/LUFA/Drivers/USB/Core/AVR8/../AVR8/Endpoint_AVR8.h **** 
  80:../../tmk_core/protocol/lufa/LUFA-git/LUFA/Drivers/USB/Core/AVR8/../AVR8/Endpoint_AVR8.h **** 	/* Enable C linkage for C++ Compilers: */
  81:../../tmk_core/protocol/lufa/LUFA-git/LUFA/Drivers/USB/Core/AVR8/../AVR8/Endpoint_AVR8.h **** 		#if defined(__cplusplus)
  82:../../tmk_core/protocol/lufa/LUFA-git/LUFA/Drivers/USB/Core/AVR8/../AVR8/Endpoint_AVR8.h **** 			extern "C" {
  83:../../tmk_core/protocol/lufa/LUFA-git/LUFA/Drivers/USB/Core/AVR8/../AVR8/Endpoint_AVR8.h **** 		#endif
  84:../../tmk_core/protocol/lufa/LUFA-git/LUFA/Drivers/USB/Core/AVR8/../AVR8/Endpoint_AVR8.h **** 
  85:../../tmk_core/protocol/lufa/LUFA-git/LUFA/Drivers/USB/Core/AVR8/../AVR8/Endpoint_AVR8.h **** 	/* Preprocessor Checks: */
  86:../../tmk_core/protocol/lufa/LUFA-git/LUFA/Drivers/USB/Core/AVR8/../AVR8/Endpoint_AVR8.h **** 		#if !defined(__INCLUDE_FROM_USB_DRIVER)
  87:../../tmk_core/protocol/lufa/LUFA-git/LUFA/Drivers/USB/Core/AVR8/../AVR8/Endpoint_AVR8.h **** 			#error Do not include this file directly. Include LUFA/Drivers/USB/USB.h instead.
  88:../../tmk_core/protocol/lufa/LUFA-git/LUFA/Drivers/USB/Core/AVR8/../AVR8/Endpoint_AVR8.h **** 		#endif
  89:../../tmk_core/protocol/lufa/LUFA-git/LUFA/Drivers/USB/Core/AVR8/../AVR8/Endpoint_AVR8.h **** 
  90:../../tmk_core/protocol/lufa/LUFA-git/LUFA/Drivers/USB/Core/AVR8/../AVR8/Endpoint_AVR8.h **** 	/* Private Interface - For use in library only: */
  91:../../tmk_core/protocol/lufa/LUFA-git/LUFA/Drivers/USB/Core/AVR8/../AVR8/Endpoint_AVR8.h **** 	#if !defined(__DOXYGEN__)
  92:../../tmk_core/protocol/lufa/LUFA-git/LUFA/Drivers/USB/Core/AVR8/../AVR8/Endpoint_AVR8.h **** 		/* Inline Functions: */
  93:../../tmk_core/protocol/lufa/LUFA-git/LUFA/Drivers/USB/Core/AVR8/../AVR8/Endpoint_AVR8.h **** 			static inline uint8_t Endpoint_BytesToEPSizeMask(const uint16_t Bytes) ATTR_WARN_UNUSED_RESULT A
  94:../../tmk_core/protocol/lufa/LUFA-git/LUFA/Drivers/USB/Core/AVR8/../AVR8/Endpoint_AVR8.h **** 			                                                                       ATTR_ALWAYS_INLINE;
  95:../../tmk_core/protocol/lufa/LUFA-git/LUFA/Drivers/USB/Core/AVR8/../AVR8/Endpoint_AVR8.h **** 			static inline uint8_t Endpoint_BytesToEPSizeMask(const uint16_t Bytes)
  96:../../tmk_core/protocol/lufa/LUFA-git/LUFA/Drivers/USB/Core/AVR8/../AVR8/Endpoint_AVR8.h **** 			{
  97:../../tmk_core/protocol/lufa/LUFA-git/LUFA/Drivers/USB/Core/AVR8/../AVR8/Endpoint_AVR8.h **** 				uint8_t  MaskVal    = 0;
  98:../../tmk_core/protocol/lufa/LUFA-git/LUFA/Drivers/USB/Core/AVR8/../AVR8/Endpoint_AVR8.h **** 				uint16_t CheckBytes = 8;
  99:../../tmk_core/protocol/lufa/LUFA-git/LUFA/Drivers/USB/Core/AVR8/../AVR8/Endpoint_AVR8.h **** 
 100:../../tmk_core/protocol/lufa/LUFA-git/LUFA/Drivers/USB/Core/AVR8/../AVR8/Endpoint_AVR8.h **** 				while (CheckBytes < Bytes)
 101:../../tmk_core/protocol/lufa/LUFA-git/LUFA/Drivers/USB/Core/AVR8/../AVR8/Endpoint_AVR8.h **** 				{
 102:../../tmk_core/protocol/lufa/LUFA-git/LUFA/Drivers/USB/Core/AVR8/../AVR8/Endpoint_AVR8.h **** 					MaskVal++;
 103:../../tmk_core/protocol/lufa/LUFA-git/LUFA/Drivers/USB/Core/AVR8/../AVR8/Endpoint_AVR8.h **** 					CheckBytes <<= 1;
 104:../../tmk_core/protocol/lufa/LUFA-git/LUFA/Drivers/USB/Core/AVR8/../AVR8/Endpoint_AVR8.h **** 				}
 105:../../tmk_core/protocol/lufa/LUFA-git/LUFA/Drivers/USB/Core/AVR8/../AVR8/Endpoint_AVR8.h **** 
 106:../../tmk_core/protocol/lufa/LUFA-git/LUFA/Drivers/USB/Core/AVR8/../AVR8/Endpoint_AVR8.h **** 				return (MaskVal << EPSIZE0);
 107:../../tmk_core/protocol/lufa/LUFA-git/LUFA/Drivers/USB/Core/AVR8/../AVR8/Endpoint_AVR8.h **** 			}
 108:../../tmk_core/protocol/lufa/LUFA-git/LUFA/Drivers/USB/Core/AVR8/../AVR8/Endpoint_AVR8.h **** 
 109:../../tmk_core/protocol/lufa/LUFA-git/LUFA/Drivers/USB/Core/AVR8/../AVR8/Endpoint_AVR8.h **** 		/* Function Prototypes: */
 110:../../tmk_core/protocol/lufa/LUFA-git/LUFA/Drivers/USB/Core/AVR8/../AVR8/Endpoint_AVR8.h **** 			void Endpoint_ClearEndpoints(void);
 111:../../tmk_core/protocol/lufa/LUFA-git/LUFA/Drivers/USB/Core/AVR8/../AVR8/Endpoint_AVR8.h **** 			bool Endpoint_ConfigureEndpoint_Prv(const uint8_t Number,
 112:../../tmk_core/protocol/lufa/LUFA-git/LUFA/Drivers/USB/Core/AVR8/../AVR8/Endpoint_AVR8.h **** 			                                    const uint8_t UECFG0XData,
 113:../../tmk_core/protocol/lufa/LUFA-git/LUFA/Drivers/USB/Core/AVR8/../AVR8/Endpoint_AVR8.h **** 			                                    const uint8_t UECFG1XData);
 114:../../tmk_core/protocol/lufa/LUFA-git/LUFA/Drivers/USB/Core/AVR8/../AVR8/Endpoint_AVR8.h **** 
 115:../../tmk_core/protocol/lufa/LUFA-git/LUFA/Drivers/USB/Core/AVR8/../AVR8/Endpoint_AVR8.h **** 	#endif
 116:../../tmk_core/protocol/lufa/LUFA-git/LUFA/Drivers/USB/Core/AVR8/../AVR8/Endpoint_AVR8.h **** 
 117:../../tmk_core/protocol/lufa/LUFA-git/LUFA/Drivers/USB/Core/AVR8/../AVR8/Endpoint_AVR8.h **** 	/* Public Interface - May be used in end-application: */
 118:../../tmk_core/protocol/lufa/LUFA-git/LUFA/Drivers/USB/Core/AVR8/../AVR8/Endpoint_AVR8.h **** 		/* Macros: */
 119:../../tmk_core/protocol/lufa/LUFA-git/LUFA/Drivers/USB/Core/AVR8/../AVR8/Endpoint_AVR8.h **** 			#if (!defined(FIXED_CONTROL_ENDPOINT_SIZE) || defined(__DOXYGEN__))
 120:../../tmk_core/protocol/lufa/LUFA-git/LUFA/Drivers/USB/Core/AVR8/../AVR8/Endpoint_AVR8.h **** 				/** Default size of the default control endpoint's bank, until altered by the control endpoint 
 121:../../tmk_core/protocol/lufa/LUFA-git/LUFA/Drivers/USB/Core/AVR8/../AVR8/Endpoint_AVR8.h **** 				 *  value in the device descriptor. Not available if the \c FIXED_CONTROL_ENDPOINT_SIZE token i
 122:../../tmk_core/protocol/lufa/LUFA-git/LUFA/Drivers/USB/Core/AVR8/../AVR8/Endpoint_AVR8.h **** 				 */
 123:../../tmk_core/protocol/lufa/LUFA-git/LUFA/Drivers/USB/Core/AVR8/../AVR8/Endpoint_AVR8.h **** 				#define ENDPOINT_CONTROLEP_DEFAULT_SIZE     8
 124:../../tmk_core/protocol/lufa/LUFA-git/LUFA/Drivers/USB/Core/AVR8/../AVR8/Endpoint_AVR8.h **** 			#endif
 125:../../tmk_core/protocol/lufa/LUFA-git/LUFA/Drivers/USB/Core/AVR8/../AVR8/Endpoint_AVR8.h **** 
 126:../../tmk_core/protocol/lufa/LUFA-git/LUFA/Drivers/USB/Core/AVR8/../AVR8/Endpoint_AVR8.h **** 			#if !defined(CONTROL_ONLY_DEVICE) || defined(__DOXYGEN__)
 127:../../tmk_core/protocol/lufa/LUFA-git/LUFA/Drivers/USB/Core/AVR8/../AVR8/Endpoint_AVR8.h **** 				#if defined(USB_SERIES_4_AVR) || defined(USB_SERIES_6_AVR) || defined(USB_SERIES_7_AVR) || defi
 128:../../tmk_core/protocol/lufa/LUFA-git/LUFA/Drivers/USB/Core/AVR8/../AVR8/Endpoint_AVR8.h **** 					/** Total number of endpoints (including the default control endpoint at address 0) which may
 129:../../tmk_core/protocol/lufa/LUFA-git/LUFA/Drivers/USB/Core/AVR8/../AVR8/Endpoint_AVR8.h **** 					 *  be used in the device. Different USB AVR models support different amounts of endpoints,
 130:../../tmk_core/protocol/lufa/LUFA-git/LUFA/Drivers/USB/Core/AVR8/../AVR8/Endpoint_AVR8.h **** 					 *  this value reflects the maximum number of endpoints for the currently selected AVR model.
 131:../../tmk_core/protocol/lufa/LUFA-git/LUFA/Drivers/USB/Core/AVR8/../AVR8/Endpoint_AVR8.h **** 					 */
 132:../../tmk_core/protocol/lufa/LUFA-git/LUFA/Drivers/USB/Core/AVR8/../AVR8/Endpoint_AVR8.h **** 					#define ENDPOINT_TOTAL_ENDPOINTS        7
 133:../../tmk_core/protocol/lufa/LUFA-git/LUFA/Drivers/USB/Core/AVR8/../AVR8/Endpoint_AVR8.h **** 				#else
 134:../../tmk_core/protocol/lufa/LUFA-git/LUFA/Drivers/USB/Core/AVR8/../AVR8/Endpoint_AVR8.h **** 					#define ENDPOINT_TOTAL_ENDPOINTS        5
 135:../../tmk_core/protocol/lufa/LUFA-git/LUFA/Drivers/USB/Core/AVR8/../AVR8/Endpoint_AVR8.h **** 				#endif
 136:../../tmk_core/protocol/lufa/LUFA-git/LUFA/Drivers/USB/Core/AVR8/../AVR8/Endpoint_AVR8.h **** 			#else
 137:../../tmk_core/protocol/lufa/LUFA-git/LUFA/Drivers/USB/Core/AVR8/../AVR8/Endpoint_AVR8.h **** 				#define ENDPOINT_TOTAL_ENDPOINTS            1
 138:../../tmk_core/protocol/lufa/LUFA-git/LUFA/Drivers/USB/Core/AVR8/../AVR8/Endpoint_AVR8.h **** 			#endif
 139:../../tmk_core/protocol/lufa/LUFA-git/LUFA/Drivers/USB/Core/AVR8/../AVR8/Endpoint_AVR8.h **** 
 140:../../tmk_core/protocol/lufa/LUFA-git/LUFA/Drivers/USB/Core/AVR8/../AVR8/Endpoint_AVR8.h **** 		/* Enums: */
 141:../../tmk_core/protocol/lufa/LUFA-git/LUFA/Drivers/USB/Core/AVR8/../AVR8/Endpoint_AVR8.h **** 			/** Enum for the possible error return codes of the \ref Endpoint_WaitUntilReady() function.
 142:../../tmk_core/protocol/lufa/LUFA-git/LUFA/Drivers/USB/Core/AVR8/../AVR8/Endpoint_AVR8.h **** 			 *
 143:../../tmk_core/protocol/lufa/LUFA-git/LUFA/Drivers/USB/Core/AVR8/../AVR8/Endpoint_AVR8.h **** 			 *  \ingroup Group_EndpointRW_AVR8
 144:../../tmk_core/protocol/lufa/LUFA-git/LUFA/Drivers/USB/Core/AVR8/../AVR8/Endpoint_AVR8.h **** 			 */
 145:../../tmk_core/protocol/lufa/LUFA-git/LUFA/Drivers/USB/Core/AVR8/../AVR8/Endpoint_AVR8.h **** 			enum Endpoint_WaitUntilReady_ErrorCodes_t
 146:../../tmk_core/protocol/lufa/LUFA-git/LUFA/Drivers/USB/Core/AVR8/../AVR8/Endpoint_AVR8.h **** 			{
 147:../../tmk_core/protocol/lufa/LUFA-git/LUFA/Drivers/USB/Core/AVR8/../AVR8/Endpoint_AVR8.h **** 				ENDPOINT_READYWAIT_NoError                 = 0, /**< Endpoint is ready for next packet, no erro
 148:../../tmk_core/protocol/lufa/LUFA-git/LUFA/Drivers/USB/Core/AVR8/../AVR8/Endpoint_AVR8.h **** 				ENDPOINT_READYWAIT_EndpointStalled         = 1, /**< The endpoint was stalled during the stream
 149:../../tmk_core/protocol/lufa/LUFA-git/LUFA/Drivers/USB/Core/AVR8/../AVR8/Endpoint_AVR8.h **** 				                                                 *   transfer by the host or device.
 150:../../tmk_core/protocol/lufa/LUFA-git/LUFA/Drivers/USB/Core/AVR8/../AVR8/Endpoint_AVR8.h **** 				                                                 */
 151:../../tmk_core/protocol/lufa/LUFA-git/LUFA/Drivers/USB/Core/AVR8/../AVR8/Endpoint_AVR8.h **** 				ENDPOINT_READYWAIT_DeviceDisconnected      = 2,	/**< Device was disconnected from the host whil
 152:../../tmk_core/protocol/lufa/LUFA-git/LUFA/Drivers/USB/Core/AVR8/../AVR8/Endpoint_AVR8.h **** 				                                                 *   waiting for the endpoint to become ready.
 153:../../tmk_core/protocol/lufa/LUFA-git/LUFA/Drivers/USB/Core/AVR8/../AVR8/Endpoint_AVR8.h **** 				                                                 */
 154:../../tmk_core/protocol/lufa/LUFA-git/LUFA/Drivers/USB/Core/AVR8/../AVR8/Endpoint_AVR8.h **** 				ENDPOINT_READYWAIT_BusSuspended            = 3, /**< The USB bus has been suspended by the host
 155:../../tmk_core/protocol/lufa/LUFA-git/LUFA/Drivers/USB/Core/AVR8/../AVR8/Endpoint_AVR8.h **** 				                                                 *   no USB endpoint traffic can occur until th
 156:../../tmk_core/protocol/lufa/LUFA-git/LUFA/Drivers/USB/Core/AVR8/../AVR8/Endpoint_AVR8.h **** 				                                                 *   has resumed.
 157:../../tmk_core/protocol/lufa/LUFA-git/LUFA/Drivers/USB/Core/AVR8/../AVR8/Endpoint_AVR8.h **** 				                                                 */
 158:../../tmk_core/protocol/lufa/LUFA-git/LUFA/Drivers/USB/Core/AVR8/../AVR8/Endpoint_AVR8.h **** 				ENDPOINT_READYWAIT_Timeout                 = 4, /**< The host failed to accept or send the next
 159:../../tmk_core/protocol/lufa/LUFA-git/LUFA/Drivers/USB/Core/AVR8/../AVR8/Endpoint_AVR8.h **** 				                                                 *   within the software timeout period set by 
 160:../../tmk_core/protocol/lufa/LUFA-git/LUFA/Drivers/USB/Core/AVR8/../AVR8/Endpoint_AVR8.h **** 				                                                 *   \ref USB_STREAM_TIMEOUT_MS macro.
 161:../../tmk_core/protocol/lufa/LUFA-git/LUFA/Drivers/USB/Core/AVR8/../AVR8/Endpoint_AVR8.h **** 				                                                 */
 162:../../tmk_core/protocol/lufa/LUFA-git/LUFA/Drivers/USB/Core/AVR8/../AVR8/Endpoint_AVR8.h **** 			};
 163:../../tmk_core/protocol/lufa/LUFA-git/LUFA/Drivers/USB/Core/AVR8/../AVR8/Endpoint_AVR8.h **** 
 164:../../tmk_core/protocol/lufa/LUFA-git/LUFA/Drivers/USB/Core/AVR8/../AVR8/Endpoint_AVR8.h **** 		/* Inline Functions: */
 165:../../tmk_core/protocol/lufa/LUFA-git/LUFA/Drivers/USB/Core/AVR8/../AVR8/Endpoint_AVR8.h **** 			/** Configures the specified endpoint address with the given endpoint type, bank size and number
 166:../../tmk_core/protocol/lufa/LUFA-git/LUFA/Drivers/USB/Core/AVR8/../AVR8/Endpoint_AVR8.h **** 			 *  banks. Once configured, the endpoint may be read from or written to, depending on its direct
 167:../../tmk_core/protocol/lufa/LUFA-git/LUFA/Drivers/USB/Core/AVR8/../AVR8/Endpoint_AVR8.h **** 			 *
 168:../../tmk_core/protocol/lufa/LUFA-git/LUFA/Drivers/USB/Core/AVR8/../AVR8/Endpoint_AVR8.h **** 			 *  \param[in] Address    Endpoint address to configure.
 169:../../tmk_core/protocol/lufa/LUFA-git/LUFA/Drivers/USB/Core/AVR8/../AVR8/Endpoint_AVR8.h **** 			 *
 170:../../tmk_core/protocol/lufa/LUFA-git/LUFA/Drivers/USB/Core/AVR8/../AVR8/Endpoint_AVR8.h **** 			 *  \param[in] Type       Type of endpoint to configure, a \c EP_TYPE_* mask. Not all endpoint t
 171:../../tmk_core/protocol/lufa/LUFA-git/LUFA/Drivers/USB/Core/AVR8/../AVR8/Endpoint_AVR8.h **** 			 *                        are available on Low Speed USB devices - refer to the USB 2.0 specific
 172:../../tmk_core/protocol/lufa/LUFA-git/LUFA/Drivers/USB/Core/AVR8/../AVR8/Endpoint_AVR8.h **** 			 *
 173:../../tmk_core/protocol/lufa/LUFA-git/LUFA/Drivers/USB/Core/AVR8/../AVR8/Endpoint_AVR8.h **** 			 *  \param[in] Size       Size of the endpoint's bank, where packets are stored before they are 
 174:../../tmk_core/protocol/lufa/LUFA-git/LUFA/Drivers/USB/Core/AVR8/../AVR8/Endpoint_AVR8.h **** 			 *                        to the USB host, or after they have been received from the USB host (d
 175:../../tmk_core/protocol/lufa/LUFA-git/LUFA/Drivers/USB/Core/AVR8/../AVR8/Endpoint_AVR8.h **** 			 *                        the endpoint's data direction). The bank size must indicate the maximu
 176:../../tmk_core/protocol/lufa/LUFA-git/LUFA/Drivers/USB/Core/AVR8/../AVR8/Endpoint_AVR8.h **** 			 *                        that the endpoint can handle.
 177:../../tmk_core/protocol/lufa/LUFA-git/LUFA/Drivers/USB/Core/AVR8/../AVR8/Endpoint_AVR8.h **** 			 *
 178:../../tmk_core/protocol/lufa/LUFA-git/LUFA/Drivers/USB/Core/AVR8/../AVR8/Endpoint_AVR8.h **** 			 *  \param[in] Banks      Number of banks to use for the endpoint being configured.
 179:../../tmk_core/protocol/lufa/LUFA-git/LUFA/Drivers/USB/Core/AVR8/../AVR8/Endpoint_AVR8.h **** 			 *
 180:../../tmk_core/protocol/lufa/LUFA-git/LUFA/Drivers/USB/Core/AVR8/../AVR8/Endpoint_AVR8.h **** 			 *  \attention When the \c ORDERED_EP_CONFIG compile time option is used, Endpoints <b>must</b> 
 181:../../tmk_core/protocol/lufa/LUFA-git/LUFA/Drivers/USB/Core/AVR8/../AVR8/Endpoint_AVR8.h **** 			 *             ascending order, or bank corruption will occur.
 182:../../tmk_core/protocol/lufa/LUFA-git/LUFA/Drivers/USB/Core/AVR8/../AVR8/Endpoint_AVR8.h **** 			 *
 183:../../tmk_core/protocol/lufa/LUFA-git/LUFA/Drivers/USB/Core/AVR8/../AVR8/Endpoint_AVR8.h **** 			 *  \note Different endpoints may have different maximum packet sizes based on the endpoint's in
 184:../../tmk_core/protocol/lufa/LUFA-git/LUFA/Drivers/USB/Core/AVR8/../AVR8/Endpoint_AVR8.h **** 			 *        refer to the chosen microcontroller model's datasheet to determine the maximum bank si
 185:../../tmk_core/protocol/lufa/LUFA-git/LUFA/Drivers/USB/Core/AVR8/../AVR8/Endpoint_AVR8.h **** 			 *        \n\n
 186:../../tmk_core/protocol/lufa/LUFA-git/LUFA/Drivers/USB/Core/AVR8/../AVR8/Endpoint_AVR8.h **** 			 *
 187:../../tmk_core/protocol/lufa/LUFA-git/LUFA/Drivers/USB/Core/AVR8/../AVR8/Endpoint_AVR8.h **** 			 *  \note The default control endpoint should not be manually configured by the user application
 188:../../tmk_core/protocol/lufa/LUFA-git/LUFA/Drivers/USB/Core/AVR8/../AVR8/Endpoint_AVR8.h **** 			 *        it is automatically configured by the library internally.
 189:../../tmk_core/protocol/lufa/LUFA-git/LUFA/Drivers/USB/Core/AVR8/../AVR8/Endpoint_AVR8.h **** 			 *        \n\n
 190:../../tmk_core/protocol/lufa/LUFA-git/LUFA/Drivers/USB/Core/AVR8/../AVR8/Endpoint_AVR8.h **** 			 *
 191:../../tmk_core/protocol/lufa/LUFA-git/LUFA/Drivers/USB/Core/AVR8/../AVR8/Endpoint_AVR8.h **** 			 *  \note This routine will automatically select the specified endpoint upon success. Upon failu
 192:../../tmk_core/protocol/lufa/LUFA-git/LUFA/Drivers/USB/Core/AVR8/../AVR8/Endpoint_AVR8.h **** 			 *        which failed to reconfigure correctly will be selected.
 193:../../tmk_core/protocol/lufa/LUFA-git/LUFA/Drivers/USB/Core/AVR8/../AVR8/Endpoint_AVR8.h **** 			 *
 194:../../tmk_core/protocol/lufa/LUFA-git/LUFA/Drivers/USB/Core/AVR8/../AVR8/Endpoint_AVR8.h **** 			 *  \return Boolean \c true if the configuration succeeded, \c false otherwise.
 195:../../tmk_core/protocol/lufa/LUFA-git/LUFA/Drivers/USB/Core/AVR8/../AVR8/Endpoint_AVR8.h **** 			 */
 196:../../tmk_core/protocol/lufa/LUFA-git/LUFA/Drivers/USB/Core/AVR8/../AVR8/Endpoint_AVR8.h **** 			static inline bool Endpoint_ConfigureEndpoint(const uint8_t Address,
 197:../../tmk_core/protocol/lufa/LUFA-git/LUFA/Drivers/USB/Core/AVR8/../AVR8/Endpoint_AVR8.h **** 			                                              const uint8_t Type,
 198:../../tmk_core/protocol/lufa/LUFA-git/LUFA/Drivers/USB/Core/AVR8/../AVR8/Endpoint_AVR8.h **** 			                                              const uint16_t Size,
 199:../../tmk_core/protocol/lufa/LUFA-git/LUFA/Drivers/USB/Core/AVR8/../AVR8/Endpoint_AVR8.h **** 			                                              const uint8_t Banks) ATTR_ALWAYS_INLINE;
 200:../../tmk_core/protocol/lufa/LUFA-git/LUFA/Drivers/USB/Core/AVR8/../AVR8/Endpoint_AVR8.h **** 			static inline bool Endpoint_ConfigureEndpoint(const uint8_t Address,
 201:../../tmk_core/protocol/lufa/LUFA-git/LUFA/Drivers/USB/Core/AVR8/../AVR8/Endpoint_AVR8.h **** 			                                              const uint8_t Type,
 202:../../tmk_core/protocol/lufa/LUFA-git/LUFA/Drivers/USB/Core/AVR8/../AVR8/Endpoint_AVR8.h **** 			                                              const uint16_t Size,
 203:../../tmk_core/protocol/lufa/LUFA-git/LUFA/Drivers/USB/Core/AVR8/../AVR8/Endpoint_AVR8.h **** 			                                              const uint8_t Banks)
 204:../../tmk_core/protocol/lufa/LUFA-git/LUFA/Drivers/USB/Core/AVR8/../AVR8/Endpoint_AVR8.h **** 			{
 205:../../tmk_core/protocol/lufa/LUFA-git/LUFA/Drivers/USB/Core/AVR8/../AVR8/Endpoint_AVR8.h **** 				uint8_t Number = (Address & ENDPOINT_EPNUM_MASK);
 206:../../tmk_core/protocol/lufa/LUFA-git/LUFA/Drivers/USB/Core/AVR8/../AVR8/Endpoint_AVR8.h **** 
 207:../../tmk_core/protocol/lufa/LUFA-git/LUFA/Drivers/USB/Core/AVR8/../AVR8/Endpoint_AVR8.h **** 				if (Number >= ENDPOINT_TOTAL_ENDPOINTS)
 208:../../tmk_core/protocol/lufa/LUFA-git/LUFA/Drivers/USB/Core/AVR8/../AVR8/Endpoint_AVR8.h **** 				  return false;
 209:../../tmk_core/protocol/lufa/LUFA-git/LUFA/Drivers/USB/Core/AVR8/../AVR8/Endpoint_AVR8.h **** 
 210:../../tmk_core/protocol/lufa/LUFA-git/LUFA/Drivers/USB/Core/AVR8/../AVR8/Endpoint_AVR8.h **** 				return Endpoint_ConfigureEndpoint_Prv(Number,
 211:../../tmk_core/protocol/lufa/LUFA-git/LUFA/Drivers/USB/Core/AVR8/../AVR8/Endpoint_AVR8.h **** 				                                      ((Type << EPTYPE0) | ((Address & ENDPOINT_DIR_IN) ? (1 <<
 212:../../tmk_core/protocol/lufa/LUFA-git/LUFA/Drivers/USB/Core/AVR8/../AVR8/Endpoint_AVR8.h **** 				                                      ((1 << ALLOC) | ((Banks > 1) ? (1 << EPBK0) : 0) | Endpoi
 213:../../tmk_core/protocol/lufa/LUFA-git/LUFA/Drivers/USB/Core/AVR8/../AVR8/Endpoint_AVR8.h **** 			}
 214:../../tmk_core/protocol/lufa/LUFA-git/LUFA/Drivers/USB/Core/AVR8/../AVR8/Endpoint_AVR8.h **** 
 215:../../tmk_core/protocol/lufa/LUFA-git/LUFA/Drivers/USB/Core/AVR8/../AVR8/Endpoint_AVR8.h **** 			/** Indicates the number of bytes currently stored in the current endpoint's selected bank.
 216:../../tmk_core/protocol/lufa/LUFA-git/LUFA/Drivers/USB/Core/AVR8/../AVR8/Endpoint_AVR8.h **** 			 *
 217:../../tmk_core/protocol/lufa/LUFA-git/LUFA/Drivers/USB/Core/AVR8/../AVR8/Endpoint_AVR8.h **** 			 *  \ingroup Group_EndpointRW_AVR8
 218:../../tmk_core/protocol/lufa/LUFA-git/LUFA/Drivers/USB/Core/AVR8/../AVR8/Endpoint_AVR8.h **** 			 *
 219:../../tmk_core/protocol/lufa/LUFA-git/LUFA/Drivers/USB/Core/AVR8/../AVR8/Endpoint_AVR8.h **** 			 *  \return Total number of bytes in the currently selected Endpoint's FIFO buffer.
 220:../../tmk_core/protocol/lufa/LUFA-git/LUFA/Drivers/USB/Core/AVR8/../AVR8/Endpoint_AVR8.h **** 			 */
 221:../../tmk_core/protocol/lufa/LUFA-git/LUFA/Drivers/USB/Core/AVR8/../AVR8/Endpoint_AVR8.h **** 			static inline uint16_t Endpoint_BytesInEndpoint(void) ATTR_WARN_UNUSED_RESULT ATTR_ALWAYS_INLINE
 222:../../tmk_core/protocol/lufa/LUFA-git/LUFA/Drivers/USB/Core/AVR8/../AVR8/Endpoint_AVR8.h **** 			static inline uint16_t Endpoint_BytesInEndpoint(void)
 223:../../tmk_core/protocol/lufa/LUFA-git/LUFA/Drivers/USB/Core/AVR8/../AVR8/Endpoint_AVR8.h **** 			{
 224:../../tmk_core/protocol/lufa/LUFA-git/LUFA/Drivers/USB/Core/AVR8/../AVR8/Endpoint_AVR8.h **** 				#if (defined(USB_SERIES_6_AVR) || defined(USB_SERIES_7_AVR))
 225:../../tmk_core/protocol/lufa/LUFA-git/LUFA/Drivers/USB/Core/AVR8/../AVR8/Endpoint_AVR8.h **** 					return UEBCX;
 226:../../tmk_core/protocol/lufa/LUFA-git/LUFA/Drivers/USB/Core/AVR8/../AVR8/Endpoint_AVR8.h **** 				#elif defined(USB_SERIES_4_AVR)
 227:../../tmk_core/protocol/lufa/LUFA-git/LUFA/Drivers/USB/Core/AVR8/../AVR8/Endpoint_AVR8.h **** 					return (((uint16_t)UEBCHX << 8) | UEBCLX);
 228:../../tmk_core/protocol/lufa/LUFA-git/LUFA/Drivers/USB/Core/AVR8/../AVR8/Endpoint_AVR8.h **** 				#elif defined(USB_SERIES_2_AVR)
 229:../../tmk_core/protocol/lufa/LUFA-git/LUFA/Drivers/USB/Core/AVR8/../AVR8/Endpoint_AVR8.h **** 					return UEBCLX;
 230:../../tmk_core/protocol/lufa/LUFA-git/LUFA/Drivers/USB/Core/AVR8/../AVR8/Endpoint_AVR8.h **** 				#endif
 231:../../tmk_core/protocol/lufa/LUFA-git/LUFA/Drivers/USB/Core/AVR8/../AVR8/Endpoint_AVR8.h **** 			}
 232:../../tmk_core/protocol/lufa/LUFA-git/LUFA/Drivers/USB/Core/AVR8/../AVR8/Endpoint_AVR8.h **** 
 233:../../tmk_core/protocol/lufa/LUFA-git/LUFA/Drivers/USB/Core/AVR8/../AVR8/Endpoint_AVR8.h **** 			/** Determines the currently selected endpoint's direction.
 234:../../tmk_core/protocol/lufa/LUFA-git/LUFA/Drivers/USB/Core/AVR8/../AVR8/Endpoint_AVR8.h **** 			 *
 235:../../tmk_core/protocol/lufa/LUFA-git/LUFA/Drivers/USB/Core/AVR8/../AVR8/Endpoint_AVR8.h **** 			 *  \return The currently selected endpoint's direction, as a \c ENDPOINT_DIR_* mask.
 236:../../tmk_core/protocol/lufa/LUFA-git/LUFA/Drivers/USB/Core/AVR8/../AVR8/Endpoint_AVR8.h **** 			 */
 237:../../tmk_core/protocol/lufa/LUFA-git/LUFA/Drivers/USB/Core/AVR8/../AVR8/Endpoint_AVR8.h **** 			static inline uint8_t Endpoint_GetEndpointDirection(void) ATTR_WARN_UNUSED_RESULT ATTR_ALWAYS_IN
 238:../../tmk_core/protocol/lufa/LUFA-git/LUFA/Drivers/USB/Core/AVR8/../AVR8/Endpoint_AVR8.h **** 			static inline uint8_t Endpoint_GetEndpointDirection(void)
 239:../../tmk_core/protocol/lufa/LUFA-git/LUFA/Drivers/USB/Core/AVR8/../AVR8/Endpoint_AVR8.h **** 			{
 240:../../tmk_core/protocol/lufa/LUFA-git/LUFA/Drivers/USB/Core/AVR8/../AVR8/Endpoint_AVR8.h **** 				return (UECFG0X & (1 << EPDIR)) ? ENDPOINT_DIR_IN : ENDPOINT_DIR_OUT;
 241:../../tmk_core/protocol/lufa/LUFA-git/LUFA/Drivers/USB/Core/AVR8/../AVR8/Endpoint_AVR8.h **** 			}
 242:../../tmk_core/protocol/lufa/LUFA-git/LUFA/Drivers/USB/Core/AVR8/../AVR8/Endpoint_AVR8.h **** 
 243:../../tmk_core/protocol/lufa/LUFA-git/LUFA/Drivers/USB/Core/AVR8/../AVR8/Endpoint_AVR8.h **** 			/** Get the endpoint address of the currently selected endpoint. This is typically used to save
 244:../../tmk_core/protocol/lufa/LUFA-git/LUFA/Drivers/USB/Core/AVR8/../AVR8/Endpoint_AVR8.h **** 			 *  the currently selected endpoint so that it can be restored after another endpoint has been
 245:../../tmk_core/protocol/lufa/LUFA-git/LUFA/Drivers/USB/Core/AVR8/../AVR8/Endpoint_AVR8.h **** 			 *  manipulated.
 246:../../tmk_core/protocol/lufa/LUFA-git/LUFA/Drivers/USB/Core/AVR8/../AVR8/Endpoint_AVR8.h **** 			 *
 247:../../tmk_core/protocol/lufa/LUFA-git/LUFA/Drivers/USB/Core/AVR8/../AVR8/Endpoint_AVR8.h **** 			 *  \return Index of the currently selected endpoint.
 248:../../tmk_core/protocol/lufa/LUFA-git/LUFA/Drivers/USB/Core/AVR8/../AVR8/Endpoint_AVR8.h **** 			 */
 249:../../tmk_core/protocol/lufa/LUFA-git/LUFA/Drivers/USB/Core/AVR8/../AVR8/Endpoint_AVR8.h **** 			static inline uint8_t Endpoint_GetCurrentEndpoint(void) ATTR_WARN_UNUSED_RESULT ATTR_ALWAYS_INLI
 250:../../tmk_core/protocol/lufa/LUFA-git/LUFA/Drivers/USB/Core/AVR8/../AVR8/Endpoint_AVR8.h **** 			static inline uint8_t Endpoint_GetCurrentEndpoint(void)
 251:../../tmk_core/protocol/lufa/LUFA-git/LUFA/Drivers/USB/Core/AVR8/../AVR8/Endpoint_AVR8.h **** 			{
 252:../../tmk_core/protocol/lufa/LUFA-git/LUFA/Drivers/USB/Core/AVR8/../AVR8/Endpoint_AVR8.h **** 				#if !defined(CONTROL_ONLY_DEVICE)
 253:../../tmk_core/protocol/lufa/LUFA-git/LUFA/Drivers/USB/Core/AVR8/../AVR8/Endpoint_AVR8.h **** 					return ((UENUM & ENDPOINT_EPNUM_MASK) | Endpoint_GetEndpointDirection());
 254:../../tmk_core/protocol/lufa/LUFA-git/LUFA/Drivers/USB/Core/AVR8/../AVR8/Endpoint_AVR8.h **** 				#else
 255:../../tmk_core/protocol/lufa/LUFA-git/LUFA/Drivers/USB/Core/AVR8/../AVR8/Endpoint_AVR8.h **** 					return ENDPOINT_CONTROLEP;
 256:../../tmk_core/protocol/lufa/LUFA-git/LUFA/Drivers/USB/Core/AVR8/../AVR8/Endpoint_AVR8.h **** 				#endif
 257:../../tmk_core/protocol/lufa/LUFA-git/LUFA/Drivers/USB/Core/AVR8/../AVR8/Endpoint_AVR8.h **** 			}
 258:../../tmk_core/protocol/lufa/LUFA-git/LUFA/Drivers/USB/Core/AVR8/../AVR8/Endpoint_AVR8.h **** 
 259:../../tmk_core/protocol/lufa/LUFA-git/LUFA/Drivers/USB/Core/AVR8/../AVR8/Endpoint_AVR8.h **** 			/** Selects the given endpoint address.
 260:../../tmk_core/protocol/lufa/LUFA-git/LUFA/Drivers/USB/Core/AVR8/../AVR8/Endpoint_AVR8.h **** 			 *
 261:../../tmk_core/protocol/lufa/LUFA-git/LUFA/Drivers/USB/Core/AVR8/../AVR8/Endpoint_AVR8.h **** 			 *  Any endpoint operations which do not require the endpoint address to be indicated will opera
 262:../../tmk_core/protocol/lufa/LUFA-git/LUFA/Drivers/USB/Core/AVR8/../AVR8/Endpoint_AVR8.h **** 			 *  the currently selected endpoint.
 263:../../tmk_core/protocol/lufa/LUFA-git/LUFA/Drivers/USB/Core/AVR8/../AVR8/Endpoint_AVR8.h **** 			 *
 264:../../tmk_core/protocol/lufa/LUFA-git/LUFA/Drivers/USB/Core/AVR8/../AVR8/Endpoint_AVR8.h **** 			 *  \param[in] Address Endpoint address to select.
 265:../../tmk_core/protocol/lufa/LUFA-git/LUFA/Drivers/USB/Core/AVR8/../AVR8/Endpoint_AVR8.h **** 			 */
 266:../../tmk_core/protocol/lufa/LUFA-git/LUFA/Drivers/USB/Core/AVR8/../AVR8/Endpoint_AVR8.h **** 			static inline void Endpoint_SelectEndpoint(const uint8_t Address) ATTR_ALWAYS_INLINE;
 267:../../tmk_core/protocol/lufa/LUFA-git/LUFA/Drivers/USB/Core/AVR8/../AVR8/Endpoint_AVR8.h **** 			static inline void Endpoint_SelectEndpoint(const uint8_t Address)
 268:../../tmk_core/protocol/lufa/LUFA-git/LUFA/Drivers/USB/Core/AVR8/../AVR8/Endpoint_AVR8.h **** 			{
 269:../../tmk_core/protocol/lufa/LUFA-git/LUFA/Drivers/USB/Core/AVR8/../AVR8/Endpoint_AVR8.h **** 				#if !defined(CONTROL_ONLY_DEVICE)
 270:../../tmk_core/protocol/lufa/LUFA-git/LUFA/Drivers/USB/Core/AVR8/../AVR8/Endpoint_AVR8.h **** 					UENUM = (Address & ENDPOINT_EPNUM_MASK);
  70               		.loc 2 270 0
  71 001e 9093 E900 		sts 233,r25
  72               	.LVL4:
  73 0022 8FEF      		ldi r24,lo8(-1)
  74               	.LVL5:
  75               	.L4:
  76               	.LBE259:
  77               	.LBE258:
  78               	.LBB260:
  79               	.LBB261:
 271:../../tmk_core/protocol/lufa/LUFA-git/LUFA/Drivers/USB/Core/AVR8/../AVR8/Endpoint_AVR8.h **** 				#endif
 272:../../tmk_core/protocol/lufa/LUFA-git/LUFA/Drivers/USB/Core/AVR8/../AVR8/Endpoint_AVR8.h **** 			}
 273:../../tmk_core/protocol/lufa/LUFA-git/LUFA/Drivers/USB/Core/AVR8/../AVR8/Endpoint_AVR8.h **** 
 274:../../tmk_core/protocol/lufa/LUFA-git/LUFA/Drivers/USB/Core/AVR8/../AVR8/Endpoint_AVR8.h **** 			/** Resets the endpoint bank FIFO. This clears all the endpoint banks and resets the USB control
 275:../../tmk_core/protocol/lufa/LUFA-git/LUFA/Drivers/USB/Core/AVR8/../AVR8/Endpoint_AVR8.h **** 			 *  data In and Out pointers to the bank's contents.
 276:../../tmk_core/protocol/lufa/LUFA-git/LUFA/Drivers/USB/Core/AVR8/../AVR8/Endpoint_AVR8.h **** 			 *
 277:../../tmk_core/protocol/lufa/LUFA-git/LUFA/Drivers/USB/Core/AVR8/../AVR8/Endpoint_AVR8.h **** 			 *  \param[in] Address  Endpoint address whose FIFO buffers are to be reset.
 278:../../tmk_core/protocol/lufa/LUFA-git/LUFA/Drivers/USB/Core/AVR8/../AVR8/Endpoint_AVR8.h **** 			 */
 279:../../tmk_core/protocol/lufa/LUFA-git/LUFA/Drivers/USB/Core/AVR8/../AVR8/Endpoint_AVR8.h **** 			static inline void Endpoint_ResetEndpoint(const uint8_t Address) ATTR_ALWAYS_INLINE;
 280:../../tmk_core/protocol/lufa/LUFA-git/LUFA/Drivers/USB/Core/AVR8/../AVR8/Endpoint_AVR8.h **** 			static inline void Endpoint_ResetEndpoint(const uint8_t Address)
 281:../../tmk_core/protocol/lufa/LUFA-git/LUFA/Drivers/USB/Core/AVR8/../AVR8/Endpoint_AVR8.h **** 			{
 282:../../tmk_core/protocol/lufa/LUFA-git/LUFA/Drivers/USB/Core/AVR8/../AVR8/Endpoint_AVR8.h **** 				UERST = (1 << (Address & ENDPOINT_EPNUM_MASK));
 283:../../tmk_core/protocol/lufa/LUFA-git/LUFA/Drivers/USB/Core/AVR8/../AVR8/Endpoint_AVR8.h **** 				UERST = 0;
 284:../../tmk_core/protocol/lufa/LUFA-git/LUFA/Drivers/USB/Core/AVR8/../AVR8/Endpoint_AVR8.h **** 			}
 285:../../tmk_core/protocol/lufa/LUFA-git/LUFA/Drivers/USB/Core/AVR8/../AVR8/Endpoint_AVR8.h **** 
 286:../../tmk_core/protocol/lufa/LUFA-git/LUFA/Drivers/USB/Core/AVR8/../AVR8/Endpoint_AVR8.h **** 			/** Enables the currently selected endpoint so that data can be sent and received through it to
 287:../../tmk_core/protocol/lufa/LUFA-git/LUFA/Drivers/USB/Core/AVR8/../AVR8/Endpoint_AVR8.h **** 			 *  and from a host.
 288:../../tmk_core/protocol/lufa/LUFA-git/LUFA/Drivers/USB/Core/AVR8/../AVR8/Endpoint_AVR8.h **** 			 *
 289:../../tmk_core/protocol/lufa/LUFA-git/LUFA/Drivers/USB/Core/AVR8/../AVR8/Endpoint_AVR8.h **** 			 *  \note Endpoints must first be configured properly via \ref Endpoint_ConfigureEndpoint().
 290:../../tmk_core/protocol/lufa/LUFA-git/LUFA/Drivers/USB/Core/AVR8/../AVR8/Endpoint_AVR8.h **** 			 */
 291:../../tmk_core/protocol/lufa/LUFA-git/LUFA/Drivers/USB/Core/AVR8/../AVR8/Endpoint_AVR8.h **** 			static inline void Endpoint_EnableEndpoint(void) ATTR_ALWAYS_INLINE;
 292:../../tmk_core/protocol/lufa/LUFA-git/LUFA/Drivers/USB/Core/AVR8/../AVR8/Endpoint_AVR8.h **** 			static inline void Endpoint_EnableEndpoint(void)
 293:../../tmk_core/protocol/lufa/LUFA-git/LUFA/Drivers/USB/Core/AVR8/../AVR8/Endpoint_AVR8.h **** 			{
 294:../../tmk_core/protocol/lufa/LUFA-git/LUFA/Drivers/USB/Core/AVR8/../AVR8/Endpoint_AVR8.h **** 				UECONX |= (1 << EPEN);
 295:../../tmk_core/protocol/lufa/LUFA-git/LUFA/Drivers/USB/Core/AVR8/../AVR8/Endpoint_AVR8.h **** 			}
 296:../../tmk_core/protocol/lufa/LUFA-git/LUFA/Drivers/USB/Core/AVR8/../AVR8/Endpoint_AVR8.h **** 
 297:../../tmk_core/protocol/lufa/LUFA-git/LUFA/Drivers/USB/Core/AVR8/../AVR8/Endpoint_AVR8.h **** 			/** Disables the currently selected endpoint so that data cannot be sent and received through it
 298:../../tmk_core/protocol/lufa/LUFA-git/LUFA/Drivers/USB/Core/AVR8/../AVR8/Endpoint_AVR8.h **** 			 *  to and from a host.
 299:../../tmk_core/protocol/lufa/LUFA-git/LUFA/Drivers/USB/Core/AVR8/../AVR8/Endpoint_AVR8.h **** 			 */
 300:../../tmk_core/protocol/lufa/LUFA-git/LUFA/Drivers/USB/Core/AVR8/../AVR8/Endpoint_AVR8.h **** 			static inline void Endpoint_DisableEndpoint(void) ATTR_ALWAYS_INLINE;
 301:../../tmk_core/protocol/lufa/LUFA-git/LUFA/Drivers/USB/Core/AVR8/../AVR8/Endpoint_AVR8.h **** 			static inline void Endpoint_DisableEndpoint(void)
 302:../../tmk_core/protocol/lufa/LUFA-git/LUFA/Drivers/USB/Core/AVR8/../AVR8/Endpoint_AVR8.h **** 			{
 303:../../tmk_core/protocol/lufa/LUFA-git/LUFA/Drivers/USB/Core/AVR8/../AVR8/Endpoint_AVR8.h **** 				UECONX &= ~(1 << EPEN);
 304:../../tmk_core/protocol/lufa/LUFA-git/LUFA/Drivers/USB/Core/AVR8/../AVR8/Endpoint_AVR8.h **** 			}
 305:../../tmk_core/protocol/lufa/LUFA-git/LUFA/Drivers/USB/Core/AVR8/../AVR8/Endpoint_AVR8.h **** 
 306:../../tmk_core/protocol/lufa/LUFA-git/LUFA/Drivers/USB/Core/AVR8/../AVR8/Endpoint_AVR8.h **** 			/** Determines if the currently selected endpoint is enabled, but not necessarily configured.
 307:../../tmk_core/protocol/lufa/LUFA-git/LUFA/Drivers/USB/Core/AVR8/../AVR8/Endpoint_AVR8.h **** 			 *
 308:../../tmk_core/protocol/lufa/LUFA-git/LUFA/Drivers/USB/Core/AVR8/../AVR8/Endpoint_AVR8.h **** 			 * \return Boolean \c true if the currently selected endpoint is enabled, \c false otherwise.
 309:../../tmk_core/protocol/lufa/LUFA-git/LUFA/Drivers/USB/Core/AVR8/../AVR8/Endpoint_AVR8.h **** 			 */
 310:../../tmk_core/protocol/lufa/LUFA-git/LUFA/Drivers/USB/Core/AVR8/../AVR8/Endpoint_AVR8.h **** 			static inline bool Endpoint_IsEnabled(void) ATTR_WARN_UNUSED_RESULT ATTR_ALWAYS_INLINE;
 311:../../tmk_core/protocol/lufa/LUFA-git/LUFA/Drivers/USB/Core/AVR8/../AVR8/Endpoint_AVR8.h **** 			static inline bool Endpoint_IsEnabled(void)
 312:../../tmk_core/protocol/lufa/LUFA-git/LUFA/Drivers/USB/Core/AVR8/../AVR8/Endpoint_AVR8.h **** 			{
 313:../../tmk_core/protocol/lufa/LUFA-git/LUFA/Drivers/USB/Core/AVR8/../AVR8/Endpoint_AVR8.h **** 				return ((UECONX & (1 << EPEN)) ? true : false);
 314:../../tmk_core/protocol/lufa/LUFA-git/LUFA/Drivers/USB/Core/AVR8/../AVR8/Endpoint_AVR8.h **** 			}
 315:../../tmk_core/protocol/lufa/LUFA-git/LUFA/Drivers/USB/Core/AVR8/../AVR8/Endpoint_AVR8.h **** 
 316:../../tmk_core/protocol/lufa/LUFA-git/LUFA/Drivers/USB/Core/AVR8/../AVR8/Endpoint_AVR8.h **** 			/** Retrieves the number of busy banks in the currently selected endpoint, which have been queue
 317:../../tmk_core/protocol/lufa/LUFA-git/LUFA/Drivers/USB/Core/AVR8/../AVR8/Endpoint_AVR8.h **** 			 *  transmission via the \ref Endpoint_ClearIN() command, or are awaiting acknowledgment via the
 318:../../tmk_core/protocol/lufa/LUFA-git/LUFA/Drivers/USB/Core/AVR8/../AVR8/Endpoint_AVR8.h **** 			 *  \ref Endpoint_ClearOUT() command.
 319:../../tmk_core/protocol/lufa/LUFA-git/LUFA/Drivers/USB/Core/AVR8/../AVR8/Endpoint_AVR8.h **** 			 *
 320:../../tmk_core/protocol/lufa/LUFA-git/LUFA/Drivers/USB/Core/AVR8/../AVR8/Endpoint_AVR8.h **** 			 *  \ingroup Group_EndpointPacketManagement_AVR8
 321:../../tmk_core/protocol/lufa/LUFA-git/LUFA/Drivers/USB/Core/AVR8/../AVR8/Endpoint_AVR8.h **** 			 *
 322:../../tmk_core/protocol/lufa/LUFA-git/LUFA/Drivers/USB/Core/AVR8/../AVR8/Endpoint_AVR8.h **** 			 *  \return Total number of busy banks in the selected endpoint.
 323:../../tmk_core/protocol/lufa/LUFA-git/LUFA/Drivers/USB/Core/AVR8/../AVR8/Endpoint_AVR8.h **** 			 */
 324:../../tmk_core/protocol/lufa/LUFA-git/LUFA/Drivers/USB/Core/AVR8/../AVR8/Endpoint_AVR8.h **** 			static inline uint8_t Endpoint_GetBusyBanks(void) ATTR_ALWAYS_INLINE ATTR_WARN_UNUSED_RESULT;
 325:../../tmk_core/protocol/lufa/LUFA-git/LUFA/Drivers/USB/Core/AVR8/../AVR8/Endpoint_AVR8.h **** 			static inline uint8_t Endpoint_GetBusyBanks(void)
 326:../../tmk_core/protocol/lufa/LUFA-git/LUFA/Drivers/USB/Core/AVR8/../AVR8/Endpoint_AVR8.h **** 			{
 327:../../tmk_core/protocol/lufa/LUFA-git/LUFA/Drivers/USB/Core/AVR8/../AVR8/Endpoint_AVR8.h **** 				return (UESTA0X & (0x03 << NBUSYBK0));
 328:../../tmk_core/protocol/lufa/LUFA-git/LUFA/Drivers/USB/Core/AVR8/../AVR8/Endpoint_AVR8.h **** 			}
 329:../../tmk_core/protocol/lufa/LUFA-git/LUFA/Drivers/USB/Core/AVR8/../AVR8/Endpoint_AVR8.h **** 
 330:../../tmk_core/protocol/lufa/LUFA-git/LUFA/Drivers/USB/Core/AVR8/../AVR8/Endpoint_AVR8.h **** 			/** Aborts all pending IN transactions on the currently selected endpoint, once the bank
 331:../../tmk_core/protocol/lufa/LUFA-git/LUFA/Drivers/USB/Core/AVR8/../AVR8/Endpoint_AVR8.h **** 			 *  has been queued for transmission to the host via \ref Endpoint_ClearIN(). This function
 332:../../tmk_core/protocol/lufa/LUFA-git/LUFA/Drivers/USB/Core/AVR8/../AVR8/Endpoint_AVR8.h **** 			 *  will terminate all queued transactions, resetting the endpoint banks ready for a new
 333:../../tmk_core/protocol/lufa/LUFA-git/LUFA/Drivers/USB/Core/AVR8/../AVR8/Endpoint_AVR8.h **** 			 *  packet.
 334:../../tmk_core/protocol/lufa/LUFA-git/LUFA/Drivers/USB/Core/AVR8/../AVR8/Endpoint_AVR8.h **** 			 *
 335:../../tmk_core/protocol/lufa/LUFA-git/LUFA/Drivers/USB/Core/AVR8/../AVR8/Endpoint_AVR8.h **** 			 *  \ingroup Group_EndpointPacketManagement_AVR8
 336:../../tmk_core/protocol/lufa/LUFA-git/LUFA/Drivers/USB/Core/AVR8/../AVR8/Endpoint_AVR8.h **** 			 */
 337:../../tmk_core/protocol/lufa/LUFA-git/LUFA/Drivers/USB/Core/AVR8/../AVR8/Endpoint_AVR8.h **** 			static inline void Endpoint_AbortPendingIN(void)
 338:../../tmk_core/protocol/lufa/LUFA-git/LUFA/Drivers/USB/Core/AVR8/../AVR8/Endpoint_AVR8.h **** 			{
 339:../../tmk_core/protocol/lufa/LUFA-git/LUFA/Drivers/USB/Core/AVR8/../AVR8/Endpoint_AVR8.h **** 				while (Endpoint_GetBusyBanks() != 0)
 340:../../tmk_core/protocol/lufa/LUFA-git/LUFA/Drivers/USB/Core/AVR8/../AVR8/Endpoint_AVR8.h **** 				{
 341:../../tmk_core/protocol/lufa/LUFA-git/LUFA/Drivers/USB/Core/AVR8/../AVR8/Endpoint_AVR8.h **** 					UEINTX |= (1 << RXOUTI);
 342:../../tmk_core/protocol/lufa/LUFA-git/LUFA/Drivers/USB/Core/AVR8/../AVR8/Endpoint_AVR8.h **** 					while (UEINTX & (1 << RXOUTI));
 343:../../tmk_core/protocol/lufa/LUFA-git/LUFA/Drivers/USB/Core/AVR8/../AVR8/Endpoint_AVR8.h **** 				}
 344:../../tmk_core/protocol/lufa/LUFA-git/LUFA/Drivers/USB/Core/AVR8/../AVR8/Endpoint_AVR8.h **** 			}
 345:../../tmk_core/protocol/lufa/LUFA-git/LUFA/Drivers/USB/Core/AVR8/../AVR8/Endpoint_AVR8.h **** 
 346:../../tmk_core/protocol/lufa/LUFA-git/LUFA/Drivers/USB/Core/AVR8/../AVR8/Endpoint_AVR8.h **** 			/** Determines if the currently selected endpoint may be read from (if data is waiting in the en
 347:../../tmk_core/protocol/lufa/LUFA-git/LUFA/Drivers/USB/Core/AVR8/../AVR8/Endpoint_AVR8.h **** 			 *  bank and the endpoint is an OUT direction, or if the bank is not yet full if the endpoint is
 348:../../tmk_core/protocol/lufa/LUFA-git/LUFA/Drivers/USB/Core/AVR8/../AVR8/Endpoint_AVR8.h **** 			 *  direction). This function will return false if an error has occurred in the endpoint, if the
 349:../../tmk_core/protocol/lufa/LUFA-git/LUFA/Drivers/USB/Core/AVR8/../AVR8/Endpoint_AVR8.h **** 			 *  is an OUT direction and no packet (or an empty packet) has been received, or if the endpoint
 350:../../tmk_core/protocol/lufa/LUFA-git/LUFA/Drivers/USB/Core/AVR8/../AVR8/Endpoint_AVR8.h **** 			 *  direction and the endpoint bank is full.
 351:../../tmk_core/protocol/lufa/LUFA-git/LUFA/Drivers/USB/Core/AVR8/../AVR8/Endpoint_AVR8.h **** 			 *
 352:../../tmk_core/protocol/lufa/LUFA-git/LUFA/Drivers/USB/Core/AVR8/../AVR8/Endpoint_AVR8.h **** 			 *  \ingroup Group_EndpointPacketManagement_AVR8
 353:../../tmk_core/protocol/lufa/LUFA-git/LUFA/Drivers/USB/Core/AVR8/../AVR8/Endpoint_AVR8.h **** 			 *
 354:../../tmk_core/protocol/lufa/LUFA-git/LUFA/Drivers/USB/Core/AVR8/../AVR8/Endpoint_AVR8.h **** 			 *  \return Boolean \c true if the currently selected endpoint may be read from or written to, d
 355:../../tmk_core/protocol/lufa/LUFA-git/LUFA/Drivers/USB/Core/AVR8/../AVR8/Endpoint_AVR8.h **** 			 *          on its direction.
 356:../../tmk_core/protocol/lufa/LUFA-git/LUFA/Drivers/USB/Core/AVR8/../AVR8/Endpoint_AVR8.h **** 			 */
 357:../../tmk_core/protocol/lufa/LUFA-git/LUFA/Drivers/USB/Core/AVR8/../AVR8/Endpoint_AVR8.h **** 			static inline bool Endpoint_IsReadWriteAllowed(void) ATTR_WARN_UNUSED_RESULT ATTR_ALWAYS_INLINE;
 358:../../tmk_core/protocol/lufa/LUFA-git/LUFA/Drivers/USB/Core/AVR8/../AVR8/Endpoint_AVR8.h **** 			static inline bool Endpoint_IsReadWriteAllowed(void)
 359:../../tmk_core/protocol/lufa/LUFA-git/LUFA/Drivers/USB/Core/AVR8/../AVR8/Endpoint_AVR8.h **** 			{
 360:../../tmk_core/protocol/lufa/LUFA-git/LUFA/Drivers/USB/Core/AVR8/../AVR8/Endpoint_AVR8.h **** 				return ((UEINTX & (1 << RWAL)) ? true : false);
  80               		.loc 2 360 0
  81 0024 9091 E800 		lds r25,232
  82 0028 8150      		subi r24,lo8(-(-1))
  83               	.LVL6:
  84               	.LBE261:
  85               	.LBE260:
 560:../../tmk_core/protocol/lufa/lufa.c ****         .report_id = REPORT_ID_CONSUMER,
 561:../../tmk_core/protocol/lufa/lufa.c ****         .usage = data
 562:../../tmk_core/protocol/lufa/lufa.c ****     };
 563:../../tmk_core/protocol/lufa/lufa.c ****     Endpoint_SelectEndpoint(EXTRAKEY_IN_EPNUM);
 564:../../tmk_core/protocol/lufa/lufa.c **** 
 565:../../tmk_core/protocol/lufa/lufa.c ****     /* Check if write ready for a polling interval around 10ms */
 566:../../tmk_core/protocol/lufa/lufa.c ****     while (timeout-- && !Endpoint_IsReadWriteAllowed()) _delay_us(40);
  86               		.loc 1 566 0
  87 002a 95FD      		sbrc r25,5
  88 002c 00C0      		rjmp .L5
  89               	.LVL7:
  90               	.LBB262:
  91               	.LBB263:
  92               		.file 3 "/usr/lib/avr/include/util/delay.h"
   1:/usr/lib/avr/include/util/delay.h **** /* Copyright (c) 2002, Marek Michalkiewicz
   2:/usr/lib/avr/include/util/delay.h ****    Copyright (c) 2004,2005,2007 Joerg Wunsch
   3:/usr/lib/avr/include/util/delay.h ****    Copyright (c) 2007  Florin-Viorel Petrov
   4:/usr/lib/avr/include/util/delay.h ****    All rights reserved.
   5:/usr/lib/avr/include/util/delay.h **** 
   6:/usr/lib/avr/include/util/delay.h ****    Redistribution and use in source and binary forms, with or without
   7:/usr/lib/avr/include/util/delay.h ****    modification, are permitted provided that the following conditions are met:
   8:/usr/lib/avr/include/util/delay.h **** 
   9:/usr/lib/avr/include/util/delay.h ****    * Redistributions of source code must retain the above copyright
  10:/usr/lib/avr/include/util/delay.h ****      notice, this list of conditions and the following disclaimer.
  11:/usr/lib/avr/include/util/delay.h **** 
  12:/usr/lib/avr/include/util/delay.h ****    * Redistributions in binary form must reproduce the above copyright
  13:/usr/lib/avr/include/util/delay.h ****      notice, this list of conditions and the following disclaimer in
  14:/usr/lib/avr/include/util/delay.h ****      the documentation and/or other materials provided with the
  15:/usr/lib/avr/include/util/delay.h ****      distribution.
  16:/usr/lib/avr/include/util/delay.h **** 
  17:/usr/lib/avr/include/util/delay.h ****    * Neither the name of the copyright holders nor the names of
  18:/usr/lib/avr/include/util/delay.h ****      contributors may be used to endorse or promote products derived
  19:/usr/lib/avr/include/util/delay.h ****      from this software without specific prior written permission.
  20:/usr/lib/avr/include/util/delay.h **** 
  21:/usr/lib/avr/include/util/delay.h ****   THIS SOFTWARE IS PROVIDED BY THE COPYRIGHT HOLDERS AND CONTRIBUTORS "AS IS"
  22:/usr/lib/avr/include/util/delay.h ****   AND ANY EXPRESS OR IMPLIED WARRANTIES, INCLUDING, BUT NOT LIMITED TO, THE
  23:/usr/lib/avr/include/util/delay.h ****   IMPLIED WARRANTIES OF MERCHANTABILITY AND FITNESS FOR A PARTICULAR PURPOSE
  24:/usr/lib/avr/include/util/delay.h ****   ARE DISCLAIMED. IN NO EVENT SHALL THE COPYRIGHT OWNER OR CONTRIBUTORS BE
  25:/usr/lib/avr/include/util/delay.h ****   LIABLE FOR ANY DIRECT, INDIRECT, INCIDENTAL, SPECIAL, EXEMPLARY, OR
  26:/usr/lib/avr/include/util/delay.h ****   CONSEQUENTIAL DAMAGES (INCLUDING, BUT NOT LIMITED TO, PROCUREMENT OF
  27:/usr/lib/avr/include/util/delay.h ****   SUBSTITUTE GOODS OR SERVICES; LOSS OF USE, DATA, OR PROFITS; OR BUSINESS
  28:/usr/lib/avr/include/util/delay.h ****   INTERRUPTION) HOWEVER CAUSED AND ON ANY THEORY OF LIABILITY, WHETHER IN
  29:/usr/lib/avr/include/util/delay.h ****   CONTRACT, STRICT LIABILITY, OR TORT (INCLUDING NEGLIGENCE OR OTHERWISE)
  30:/usr/lib/avr/include/util/delay.h ****   ARISING IN ANY WAY OUT OF THE USE OF THIS SOFTWARE, EVEN IF ADVISED OF THE
  31:/usr/lib/avr/include/util/delay.h ****   POSSIBILITY OF SUCH DAMAGE. */
  32:/usr/lib/avr/include/util/delay.h **** 
  33:/usr/lib/avr/include/util/delay.h **** /* $Id$ */
  34:/usr/lib/avr/include/util/delay.h **** 
  35:/usr/lib/avr/include/util/delay.h **** #ifndef _UTIL_DELAY_H_
  36:/usr/lib/avr/include/util/delay.h **** #define _UTIL_DELAY_H_ 1
  37:/usr/lib/avr/include/util/delay.h **** 
  38:/usr/lib/avr/include/util/delay.h **** #ifndef __DOXYGEN__
  39:/usr/lib/avr/include/util/delay.h **** #  ifndef __HAS_DELAY_CYCLES
  40:/usr/lib/avr/include/util/delay.h **** #    define __HAS_DELAY_CYCLES 1
  41:/usr/lib/avr/include/util/delay.h **** #  endif
  42:/usr/lib/avr/include/util/delay.h **** #endif  /* __DOXYGEN__ */
  43:/usr/lib/avr/include/util/delay.h **** 
  44:/usr/lib/avr/include/util/delay.h **** #include <inttypes.h>
  45:/usr/lib/avr/include/util/delay.h **** #include <util/delay_basic.h>
  46:/usr/lib/avr/include/util/delay.h **** #include <math.h>
  47:/usr/lib/avr/include/util/delay.h **** 
  48:/usr/lib/avr/include/util/delay.h **** /** \file */
  49:/usr/lib/avr/include/util/delay.h **** /** \defgroup util_delay <util/delay.h>: Convenience functions for busy-wait delay loops
  50:/usr/lib/avr/include/util/delay.h ****     \code
  51:/usr/lib/avr/include/util/delay.h ****     #define F_CPU 1000000UL  // 1 MHz
  52:/usr/lib/avr/include/util/delay.h ****     //#define F_CPU 14.7456E6
  53:/usr/lib/avr/include/util/delay.h ****     #include <util/delay.h>
  54:/usr/lib/avr/include/util/delay.h ****     \endcode
  55:/usr/lib/avr/include/util/delay.h **** 
  56:/usr/lib/avr/include/util/delay.h ****     \note As an alternative method, it is possible to pass the
  57:/usr/lib/avr/include/util/delay.h ****     F_CPU macro down to the compiler from the Makefile.
  58:/usr/lib/avr/include/util/delay.h ****     Obviously, in that case, no \c \#define statement should be
  59:/usr/lib/avr/include/util/delay.h ****     used.
  60:/usr/lib/avr/include/util/delay.h **** 
  61:/usr/lib/avr/include/util/delay.h ****     The functions in this header file are wrappers around the basic
  62:/usr/lib/avr/include/util/delay.h ****     busy-wait functions from <util/delay_basic.h>.  They are meant as
  63:/usr/lib/avr/include/util/delay.h ****     convenience functions where actual time values can be specified
  64:/usr/lib/avr/include/util/delay.h ****     rather than a number of cycles to wait for.  The idea behind is
  65:/usr/lib/avr/include/util/delay.h ****     that compile-time constant expressions will be eliminated by
  66:/usr/lib/avr/include/util/delay.h ****     compiler optimization so floating-point expressions can be used
  67:/usr/lib/avr/include/util/delay.h ****     to calculate the number of delay cycles needed based on the CPU
  68:/usr/lib/avr/include/util/delay.h ****     frequency passed by the macro F_CPU.
  69:/usr/lib/avr/include/util/delay.h **** 
  70:/usr/lib/avr/include/util/delay.h ****     \note In order for these functions to work as intended, compiler
  71:/usr/lib/avr/include/util/delay.h ****     optimizations <em>must</em> be enabled, and the delay time
  72:/usr/lib/avr/include/util/delay.h ****     <em>must</em> be an expression that is a known constant at
  73:/usr/lib/avr/include/util/delay.h ****     compile-time.  If these requirements are not met, the resulting
  74:/usr/lib/avr/include/util/delay.h ****     delay will be much longer (and basically unpredictable), and
  75:/usr/lib/avr/include/util/delay.h ****     applications that otherwise do not use floating-point calculations
  76:/usr/lib/avr/include/util/delay.h ****     will experience severe code bloat by the floating-point library
  77:/usr/lib/avr/include/util/delay.h ****     routines linked into the application.
  78:/usr/lib/avr/include/util/delay.h **** 
  79:/usr/lib/avr/include/util/delay.h ****     The functions available allow the specification of microsecond, and
  80:/usr/lib/avr/include/util/delay.h ****     millisecond delays directly, using the application-supplied macro
  81:/usr/lib/avr/include/util/delay.h ****     F_CPU as the CPU clock frequency (in Hertz).
  82:/usr/lib/avr/include/util/delay.h **** 
  83:/usr/lib/avr/include/util/delay.h **** */
  84:/usr/lib/avr/include/util/delay.h **** 
  85:/usr/lib/avr/include/util/delay.h **** #if !defined(__DOXYGEN__)
  86:/usr/lib/avr/include/util/delay.h **** static __inline__ void _delay_us(double __us) __attribute__((__always_inline__));
  87:/usr/lib/avr/include/util/delay.h **** static __inline__ void _delay_ms(double __ms) __attribute__((__always_inline__));
  88:/usr/lib/avr/include/util/delay.h **** #endif
  89:/usr/lib/avr/include/util/delay.h **** 
  90:/usr/lib/avr/include/util/delay.h **** #ifndef F_CPU
  91:/usr/lib/avr/include/util/delay.h **** /* prevent compiler error by supplying a default */
  92:/usr/lib/avr/include/util/delay.h **** # warning "F_CPU not defined for <util/delay.h>"
  93:/usr/lib/avr/include/util/delay.h **** /** \ingroup util_delay
  94:/usr/lib/avr/include/util/delay.h ****     \def F_CPU
  95:/usr/lib/avr/include/util/delay.h ****     \brief CPU frequency in Hz
  96:/usr/lib/avr/include/util/delay.h **** 
  97:/usr/lib/avr/include/util/delay.h ****     The macro F_CPU specifies the CPU frequency to be considered by
  98:/usr/lib/avr/include/util/delay.h ****     the delay macros.  This macro is normally supplied by the
  99:/usr/lib/avr/include/util/delay.h ****     environment (e.g. from within a project header, or the project's
 100:/usr/lib/avr/include/util/delay.h ****     Makefile).  The value 1 MHz here is only provided as a "vanilla"
 101:/usr/lib/avr/include/util/delay.h ****     fallback if no such user-provided definition could be found.
 102:/usr/lib/avr/include/util/delay.h **** 
 103:/usr/lib/avr/include/util/delay.h ****     In terms of the delay functions, the CPU frequency can be given as
 104:/usr/lib/avr/include/util/delay.h ****     a floating-point constant (e.g. 3.6864E6 for 3.6864 MHz).
 105:/usr/lib/avr/include/util/delay.h ****     However, the macros in <util/setbaud.h> require it to be an
 106:/usr/lib/avr/include/util/delay.h ****     integer value.
 107:/usr/lib/avr/include/util/delay.h ****  */
 108:/usr/lib/avr/include/util/delay.h **** # define F_CPU 1000000UL
 109:/usr/lib/avr/include/util/delay.h **** #endif
 110:/usr/lib/avr/include/util/delay.h **** 
 111:/usr/lib/avr/include/util/delay.h **** #ifndef __OPTIMIZE__
 112:/usr/lib/avr/include/util/delay.h **** # warning "Compiler optimizations disabled; functions from <util/delay.h> won't work as designed"
 113:/usr/lib/avr/include/util/delay.h **** #endif
 114:/usr/lib/avr/include/util/delay.h **** 
 115:/usr/lib/avr/include/util/delay.h **** #if __HAS_DELAY_CYCLES && defined(__OPTIMIZE__) && \
 116:/usr/lib/avr/include/util/delay.h ****   !defined(__DELAY_BACKWARD_COMPATIBLE__) &&	   \
 117:/usr/lib/avr/include/util/delay.h ****   __STDC_HOSTED__
 118:/usr/lib/avr/include/util/delay.h **** #  include <math.h>
 119:/usr/lib/avr/include/util/delay.h **** #endif
 120:/usr/lib/avr/include/util/delay.h **** 
 121:/usr/lib/avr/include/util/delay.h **** /**
 122:/usr/lib/avr/include/util/delay.h ****    \ingroup util_delay
 123:/usr/lib/avr/include/util/delay.h **** 
 124:/usr/lib/avr/include/util/delay.h ****    Perform a delay of \c __ms milliseconds, using _delay_loop_2().
 125:/usr/lib/avr/include/util/delay.h **** 
 126:/usr/lib/avr/include/util/delay.h ****    The macro F_CPU is supposed to be defined to a
 127:/usr/lib/avr/include/util/delay.h ****    constant defining the CPU clock frequency (in Hertz).
 128:/usr/lib/avr/include/util/delay.h **** 
 129:/usr/lib/avr/include/util/delay.h ****    The maximal possible delay is 262.14 ms / F_CPU in MHz.
 130:/usr/lib/avr/include/util/delay.h **** 
 131:/usr/lib/avr/include/util/delay.h ****    When the user request delay which exceed the maximum possible one,
 132:/usr/lib/avr/include/util/delay.h ****    _delay_ms() provides a decreased resolution functionality. In this
 133:/usr/lib/avr/include/util/delay.h ****    mode _delay_ms() will work with a resolution of 1/10 ms, providing
 134:/usr/lib/avr/include/util/delay.h ****    delays up to 6.5535 seconds (independent from CPU frequency).  The
 135:/usr/lib/avr/include/util/delay.h ****    user will not be informed about decreased resolution.
 136:/usr/lib/avr/include/util/delay.h **** 
 137:/usr/lib/avr/include/util/delay.h ****    If the avr-gcc toolchain has __builtin_avr_delay_cycles()
 138:/usr/lib/avr/include/util/delay.h ****    support, maximal possible delay is 4294967.295 ms/ F_CPU in MHz. For
 139:/usr/lib/avr/include/util/delay.h ****    values greater than the maximal possible delay, overflows results in
 140:/usr/lib/avr/include/util/delay.h ****    no delay i.e., 0ms.
 141:/usr/lib/avr/include/util/delay.h **** 
 142:/usr/lib/avr/include/util/delay.h ****    Conversion of \c __ms into clock cycles may not always result in
 143:/usr/lib/avr/include/util/delay.h ****    integer.  By default, the clock cycles rounded up to next
 144:/usr/lib/avr/include/util/delay.h ****    integer. This ensures that the user gets at least \c __ms
 145:/usr/lib/avr/include/util/delay.h ****    microseconds of delay.
 146:/usr/lib/avr/include/util/delay.h **** 
 147:/usr/lib/avr/include/util/delay.h ****    Alternatively, by defining the macro \c __DELAY_ROUND_DOWN__, or
 148:/usr/lib/avr/include/util/delay.h ****    \c __DELAY_ROUND_CLOSEST__, before including this header file, the
 149:/usr/lib/avr/include/util/delay.h ****    algorithm can be made to round down, or round to closest integer,
 150:/usr/lib/avr/include/util/delay.h ****    respectively.
 151:/usr/lib/avr/include/util/delay.h **** 
 152:/usr/lib/avr/include/util/delay.h ****    \note
 153:/usr/lib/avr/include/util/delay.h **** 
 154:/usr/lib/avr/include/util/delay.h ****    The implementation of _delay_ms() based on
 155:/usr/lib/avr/include/util/delay.h ****    __builtin_avr_delay_cycles() is not backward compatible with older
 156:/usr/lib/avr/include/util/delay.h ****    implementations.  In order to get functionality backward compatible
 157:/usr/lib/avr/include/util/delay.h ****    with previous versions, the macro \c "__DELAY_BACKWARD_COMPATIBLE__"
 158:/usr/lib/avr/include/util/delay.h ****    must be defined before including this header file. Also, the
 159:/usr/lib/avr/include/util/delay.h ****    backward compatible algorithm will be chosen if the code is
 160:/usr/lib/avr/include/util/delay.h ****    compiled in a <em>freestanding environment</em> (GCC option
 161:/usr/lib/avr/include/util/delay.h ****    \c -ffreestanding), as the math functions required for rounding are
 162:/usr/lib/avr/include/util/delay.h ****    not available to the compiler then.
 163:/usr/lib/avr/include/util/delay.h **** 
 164:/usr/lib/avr/include/util/delay.h ****  */
 165:/usr/lib/avr/include/util/delay.h **** void
 166:/usr/lib/avr/include/util/delay.h **** _delay_ms(double __ms)
 167:/usr/lib/avr/include/util/delay.h **** {
 168:/usr/lib/avr/include/util/delay.h **** 	double __tmp ;
 169:/usr/lib/avr/include/util/delay.h **** #if __HAS_DELAY_CYCLES && defined(__OPTIMIZE__) && \
 170:/usr/lib/avr/include/util/delay.h ****   !defined(__DELAY_BACKWARD_COMPATIBLE__) &&	   \
 171:/usr/lib/avr/include/util/delay.h ****   __STDC_HOSTED__
 172:/usr/lib/avr/include/util/delay.h **** 	uint32_t __ticks_dc;
 173:/usr/lib/avr/include/util/delay.h **** 	extern void __builtin_avr_delay_cycles(unsigned long);
 174:/usr/lib/avr/include/util/delay.h **** 	__tmp = ((F_CPU) / 1e3) * __ms;
 175:/usr/lib/avr/include/util/delay.h **** 
 176:/usr/lib/avr/include/util/delay.h **** 	#if defined(__DELAY_ROUND_DOWN__)
 177:/usr/lib/avr/include/util/delay.h **** 		__ticks_dc = (uint32_t)fabs(__tmp);
 178:/usr/lib/avr/include/util/delay.h **** 
 179:/usr/lib/avr/include/util/delay.h **** 	#elif defined(__DELAY_ROUND_CLOSEST__)
 180:/usr/lib/avr/include/util/delay.h **** 		__ticks_dc = (uint32_t)(fabs(__tmp)+0.5);
 181:/usr/lib/avr/include/util/delay.h **** 
 182:/usr/lib/avr/include/util/delay.h **** 	#else
 183:/usr/lib/avr/include/util/delay.h **** 		//round up by default
 184:/usr/lib/avr/include/util/delay.h **** 		__ticks_dc = (uint32_t)(ceil(fabs(__tmp)));
 185:/usr/lib/avr/include/util/delay.h **** 	#endif
 186:/usr/lib/avr/include/util/delay.h **** 
 187:/usr/lib/avr/include/util/delay.h **** 	__builtin_avr_delay_cycles(__ticks_dc);
 188:/usr/lib/avr/include/util/delay.h **** 
 189:/usr/lib/avr/include/util/delay.h **** #else
 190:/usr/lib/avr/include/util/delay.h **** 	uint16_t __ticks;
 191:/usr/lib/avr/include/util/delay.h **** 	__tmp = ((F_CPU) / 4e3) * __ms;
 192:/usr/lib/avr/include/util/delay.h **** 	if (__tmp < 1.0)
 193:/usr/lib/avr/include/util/delay.h **** 		__ticks = 1;
 194:/usr/lib/avr/include/util/delay.h **** 	else if (__tmp > 65535)
 195:/usr/lib/avr/include/util/delay.h **** 	{
 196:/usr/lib/avr/include/util/delay.h **** 		//	__ticks = requested delay in 1/10 ms
 197:/usr/lib/avr/include/util/delay.h **** 		__ticks = (uint16_t) (__ms * 10.0);
 198:/usr/lib/avr/include/util/delay.h **** 		while(__ticks)
 199:/usr/lib/avr/include/util/delay.h **** 		{
 200:/usr/lib/avr/include/util/delay.h **** 			// wait 1/10 ms
 201:/usr/lib/avr/include/util/delay.h **** 			_delay_loop_2(((F_CPU) / 4e3) / 10);
 202:/usr/lib/avr/include/util/delay.h **** 			__ticks --;
 203:/usr/lib/avr/include/util/delay.h **** 		}
 204:/usr/lib/avr/include/util/delay.h **** 		return;
 205:/usr/lib/avr/include/util/delay.h **** 	}
 206:/usr/lib/avr/include/util/delay.h **** 	else
 207:/usr/lib/avr/include/util/delay.h **** 		__ticks = (uint16_t)__tmp;
 208:/usr/lib/avr/include/util/delay.h **** 	_delay_loop_2(__ticks);
 209:/usr/lib/avr/include/util/delay.h **** #endif
 210:/usr/lib/avr/include/util/delay.h **** }
 211:/usr/lib/avr/include/util/delay.h **** 
 212:/usr/lib/avr/include/util/delay.h **** /**
 213:/usr/lib/avr/include/util/delay.h ****    \ingroup util_delay
 214:/usr/lib/avr/include/util/delay.h **** 
 215:/usr/lib/avr/include/util/delay.h ****    Perform a delay of \c __us microseconds, using _delay_loop_1().
 216:/usr/lib/avr/include/util/delay.h **** 
 217:/usr/lib/avr/include/util/delay.h ****    The macro F_CPU is supposed to be defined to a
 218:/usr/lib/avr/include/util/delay.h ****    constant defining the CPU clock frequency (in Hertz).
 219:/usr/lib/avr/include/util/delay.h **** 
 220:/usr/lib/avr/include/util/delay.h ****    The maximal possible delay is 768 us / F_CPU in MHz.
 221:/usr/lib/avr/include/util/delay.h **** 
 222:/usr/lib/avr/include/util/delay.h ****    If the user requests a delay greater than the maximal possible one,
 223:/usr/lib/avr/include/util/delay.h ****    _delay_us() will automatically call _delay_ms() instead.  The user
 224:/usr/lib/avr/include/util/delay.h ****    will not be informed about this case.
 225:/usr/lib/avr/include/util/delay.h **** 
 226:/usr/lib/avr/include/util/delay.h ****    If the avr-gcc toolchain has __builtin_avr_delay_cycles()
 227:/usr/lib/avr/include/util/delay.h ****    support, maximal possible delay is 4294967.295 us/ F_CPU in MHz. For
 228:/usr/lib/avr/include/util/delay.h ****    values greater than the maximal possible delay, overflow results in
 229:/usr/lib/avr/include/util/delay.h ****    no delay i.e., 0us.
 230:/usr/lib/avr/include/util/delay.h **** 
 231:/usr/lib/avr/include/util/delay.h ****    Conversion of \c __us into clock cycles may not always result in
 232:/usr/lib/avr/include/util/delay.h ****    integer.  By default, the clock cycles rounded up to next
 233:/usr/lib/avr/include/util/delay.h ****    integer. This ensures that the user gets at least \c __us
 234:/usr/lib/avr/include/util/delay.h ****    microseconds of delay.
 235:/usr/lib/avr/include/util/delay.h **** 
 236:/usr/lib/avr/include/util/delay.h ****    Alternatively, by defining the macro \c __DELAY_ROUND_DOWN__, or
 237:/usr/lib/avr/include/util/delay.h ****    \c __DELAY_ROUND_CLOSEST__, before including this header file, the
 238:/usr/lib/avr/include/util/delay.h ****    algorithm can be made to round down, or round to closest integer,
 239:/usr/lib/avr/include/util/delay.h ****    respectively.
 240:/usr/lib/avr/include/util/delay.h **** 
 241:/usr/lib/avr/include/util/delay.h ****    \note
 242:/usr/lib/avr/include/util/delay.h **** 
 243:/usr/lib/avr/include/util/delay.h ****    The implementation of _delay_ms() based on
 244:/usr/lib/avr/include/util/delay.h ****    __builtin_avr_delay_cycles() is not backward compatible with older
 245:/usr/lib/avr/include/util/delay.h ****    implementations.  In order to get functionality backward compatible
 246:/usr/lib/avr/include/util/delay.h ****    with previous versions, the macro \c __DELAY_BACKWARD_COMPATIBLE__
 247:/usr/lib/avr/include/util/delay.h ****    must be defined before including this header file. Also, the
 248:/usr/lib/avr/include/util/delay.h ****    backward compatible algorithm will be chosen if the code is
 249:/usr/lib/avr/include/util/delay.h ****    compiled in a <em>freestanding environment</em> (GCC option
 250:/usr/lib/avr/include/util/delay.h ****    \c -ffreestanding), as the math functions required for rounding are
 251:/usr/lib/avr/include/util/delay.h ****    not available to the compiler then.
 252:/usr/lib/avr/include/util/delay.h **** 
 253:/usr/lib/avr/include/util/delay.h ****  */
 254:/usr/lib/avr/include/util/delay.h **** void
 255:/usr/lib/avr/include/util/delay.h **** _delay_us(double __us)
 256:/usr/lib/avr/include/util/delay.h **** {
 257:/usr/lib/avr/include/util/delay.h **** 	double __tmp ;
 258:/usr/lib/avr/include/util/delay.h **** #if __HAS_DELAY_CYCLES && defined(__OPTIMIZE__) && \
 259:/usr/lib/avr/include/util/delay.h ****   !defined(__DELAY_BACKWARD_COMPATIBLE__) &&	   \
 260:/usr/lib/avr/include/util/delay.h ****   __STDC_HOSTED__
 261:/usr/lib/avr/include/util/delay.h **** 	uint32_t __ticks_dc;
 262:/usr/lib/avr/include/util/delay.h **** 	extern void __builtin_avr_delay_cycles(unsigned long);
 263:/usr/lib/avr/include/util/delay.h **** 	__tmp = ((F_CPU) / 1e6) * __us;
 264:/usr/lib/avr/include/util/delay.h **** 
 265:/usr/lib/avr/include/util/delay.h **** 	#if defined(__DELAY_ROUND_DOWN__)
 266:/usr/lib/avr/include/util/delay.h **** 		__ticks_dc = (uint32_t)fabs(__tmp);
 267:/usr/lib/avr/include/util/delay.h **** 
 268:/usr/lib/avr/include/util/delay.h **** 	#elif defined(__DELAY_ROUND_CLOSEST__)
 269:/usr/lib/avr/include/util/delay.h **** 		__ticks_dc = (uint32_t)(fabs(__tmp)+0.5);
 270:/usr/lib/avr/include/util/delay.h **** 
 271:/usr/lib/avr/include/util/delay.h **** 	#else
 272:/usr/lib/avr/include/util/delay.h **** 		//round up by default
 273:/usr/lib/avr/include/util/delay.h **** 		__ticks_dc = (uint32_t)(ceil(fabs(__tmp)));
 274:/usr/lib/avr/include/util/delay.h **** 	#endif
 275:/usr/lib/avr/include/util/delay.h **** 
 276:/usr/lib/avr/include/util/delay.h **** 	__builtin_avr_delay_cycles(__ticks_dc);
  93               		.loc 3 276 0
  94 002e 95ED      		ldi r25,lo8(-43)
  95 0030 9A95      	1:	dec r25
  96 0032 01F4      		brne 1b
  97 0034 0000      		nop
  98               	.LVL8:
  99               	.LBE263:
 100               	.LBE262:
 101               		.loc 1 566 0
 102 0036 8111      		cpse r24,__zero_reg__
 103 0038 00C0      		rjmp .L4
 104               	.LVL9:
 105               	.L5:
 106               	.LBB264:
 107               	.LBB265:
 108               		.loc 2 360 0
 109 003a 8091 E800 		lds r24,232
 110               	.LBE265:
 111               	.LBE264:
 567:../../tmk_core/protocol/lufa/lufa.c ****     if (!Endpoint_IsReadWriteAllowed()) return;
 112               		.loc 1 567 0
 113 003e 85FF      		sbrs r24,5
 114 0040 00C0      		rjmp .L2
 568:../../tmk_core/protocol/lufa/lufa.c **** 
 569:../../tmk_core/protocol/lufa/lufa.c ****     Endpoint_Write_Stream_LE(&r, sizeof(report_extra_t), NULL);
 115               		.loc 1 569 0
 116 0042 40E0      		ldi r20,0
 117 0044 50E0      		ldi r21,0
 118 0046 63E0      		ldi r22,lo8(3)
 119 0048 70E0      		ldi r23,0
 120 004a CE01      		movw r24,r28
 121 004c 0196      		adiw r24,1
 122 004e 0E94 0000 		call Endpoint_Write_Stream_LE
 123               	.LVL10:
 124               	.LBB266:
 125               	.LBB267:
 361:../../tmk_core/protocol/lufa/LUFA-git/LUFA/Drivers/USB/Core/AVR8/../AVR8/Endpoint_AVR8.h **** 			}
 362:../../tmk_core/protocol/lufa/LUFA-git/LUFA/Drivers/USB/Core/AVR8/../AVR8/Endpoint_AVR8.h **** 
 363:../../tmk_core/protocol/lufa/LUFA-git/LUFA/Drivers/USB/Core/AVR8/../AVR8/Endpoint_AVR8.h **** 			/** Determines if the currently selected endpoint is configured.
 364:../../tmk_core/protocol/lufa/LUFA-git/LUFA/Drivers/USB/Core/AVR8/../AVR8/Endpoint_AVR8.h **** 			 *
 365:../../tmk_core/protocol/lufa/LUFA-git/LUFA/Drivers/USB/Core/AVR8/../AVR8/Endpoint_AVR8.h **** 			 *  \return Boolean \c true if the currently selected endpoint has been configured, \c false oth
 366:../../tmk_core/protocol/lufa/LUFA-git/LUFA/Drivers/USB/Core/AVR8/../AVR8/Endpoint_AVR8.h **** 			 */
 367:../../tmk_core/protocol/lufa/LUFA-git/LUFA/Drivers/USB/Core/AVR8/../AVR8/Endpoint_AVR8.h **** 			static inline bool Endpoint_IsConfigured(void) ATTR_WARN_UNUSED_RESULT ATTR_ALWAYS_INLINE;
 368:../../tmk_core/protocol/lufa/LUFA-git/LUFA/Drivers/USB/Core/AVR8/../AVR8/Endpoint_AVR8.h **** 			static inline bool Endpoint_IsConfigured(void)
 369:../../tmk_core/protocol/lufa/LUFA-git/LUFA/Drivers/USB/Core/AVR8/../AVR8/Endpoint_AVR8.h **** 			{
 370:../../tmk_core/protocol/lufa/LUFA-git/LUFA/Drivers/USB/Core/AVR8/../AVR8/Endpoint_AVR8.h **** 				return ((UESTA0X & (1 << CFGOK)) ? true : false);
 371:../../tmk_core/protocol/lufa/LUFA-git/LUFA/Drivers/USB/Core/AVR8/../AVR8/Endpoint_AVR8.h **** 			}
 372:../../tmk_core/protocol/lufa/LUFA-git/LUFA/Drivers/USB/Core/AVR8/../AVR8/Endpoint_AVR8.h **** 
 373:../../tmk_core/protocol/lufa/LUFA-git/LUFA/Drivers/USB/Core/AVR8/../AVR8/Endpoint_AVR8.h **** 			/** Returns a mask indicating which INTERRUPT type endpoints have interrupted - i.e. their
 374:../../tmk_core/protocol/lufa/LUFA-git/LUFA/Drivers/USB/Core/AVR8/../AVR8/Endpoint_AVR8.h **** 			 *  interrupt duration has elapsed. Which endpoints have interrupted can be determined by
 375:../../tmk_core/protocol/lufa/LUFA-git/LUFA/Drivers/USB/Core/AVR8/../AVR8/Endpoint_AVR8.h **** 			 *  masking the return value against <tt>(1 << <i>{Endpoint Number}</i>)</tt>.
 376:../../tmk_core/protocol/lufa/LUFA-git/LUFA/Drivers/USB/Core/AVR8/../AVR8/Endpoint_AVR8.h **** 			 *
 377:../../tmk_core/protocol/lufa/LUFA-git/LUFA/Drivers/USB/Core/AVR8/../AVR8/Endpoint_AVR8.h **** 			 *  \return Mask whose bits indicate which endpoints have interrupted.
 378:../../tmk_core/protocol/lufa/LUFA-git/LUFA/Drivers/USB/Core/AVR8/../AVR8/Endpoint_AVR8.h **** 			 */
 379:../../tmk_core/protocol/lufa/LUFA-git/LUFA/Drivers/USB/Core/AVR8/../AVR8/Endpoint_AVR8.h **** 			static inline uint8_t Endpoint_GetEndpointInterrupts(void) ATTR_WARN_UNUSED_RESULT ATTR_ALWAYS_I
 380:../../tmk_core/protocol/lufa/LUFA-git/LUFA/Drivers/USB/Core/AVR8/../AVR8/Endpoint_AVR8.h **** 			static inline uint8_t Endpoint_GetEndpointInterrupts(void)
 381:../../tmk_core/protocol/lufa/LUFA-git/LUFA/Drivers/USB/Core/AVR8/../AVR8/Endpoint_AVR8.h **** 			{
 382:../../tmk_core/protocol/lufa/LUFA-git/LUFA/Drivers/USB/Core/AVR8/../AVR8/Endpoint_AVR8.h **** 				return UEINT;
 383:../../tmk_core/protocol/lufa/LUFA-git/LUFA/Drivers/USB/Core/AVR8/../AVR8/Endpoint_AVR8.h **** 			}
 384:../../tmk_core/protocol/lufa/LUFA-git/LUFA/Drivers/USB/Core/AVR8/../AVR8/Endpoint_AVR8.h **** 
 385:../../tmk_core/protocol/lufa/LUFA-git/LUFA/Drivers/USB/Core/AVR8/../AVR8/Endpoint_AVR8.h **** 			/** Determines if the specified endpoint number has interrupted (valid only for INTERRUPT type
 386:../../tmk_core/protocol/lufa/LUFA-git/LUFA/Drivers/USB/Core/AVR8/../AVR8/Endpoint_AVR8.h **** 			 *  endpoints).
 387:../../tmk_core/protocol/lufa/LUFA-git/LUFA/Drivers/USB/Core/AVR8/../AVR8/Endpoint_AVR8.h **** 			 *
 388:../../tmk_core/protocol/lufa/LUFA-git/LUFA/Drivers/USB/Core/AVR8/../AVR8/Endpoint_AVR8.h **** 			 *  \param[in] Address  Address of the endpoint whose interrupt flag should be tested.
 389:../../tmk_core/protocol/lufa/LUFA-git/LUFA/Drivers/USB/Core/AVR8/../AVR8/Endpoint_AVR8.h **** 			 *
 390:../../tmk_core/protocol/lufa/LUFA-git/LUFA/Drivers/USB/Core/AVR8/../AVR8/Endpoint_AVR8.h **** 			 *  \return Boolean \c true if the specified endpoint has interrupted, \c false otherwise.
 391:../../tmk_core/protocol/lufa/LUFA-git/LUFA/Drivers/USB/Core/AVR8/../AVR8/Endpoint_AVR8.h **** 			 */
 392:../../tmk_core/protocol/lufa/LUFA-git/LUFA/Drivers/USB/Core/AVR8/../AVR8/Endpoint_AVR8.h **** 			static inline bool Endpoint_HasEndpointInterrupted(const uint8_t Address) ATTR_WARN_UNUSED_RESUL
 393:../../tmk_core/protocol/lufa/LUFA-git/LUFA/Drivers/USB/Core/AVR8/../AVR8/Endpoint_AVR8.h **** 			static inline bool Endpoint_HasEndpointInterrupted(const uint8_t Address)
 394:../../tmk_core/protocol/lufa/LUFA-git/LUFA/Drivers/USB/Core/AVR8/../AVR8/Endpoint_AVR8.h **** 			{
 395:../../tmk_core/protocol/lufa/LUFA-git/LUFA/Drivers/USB/Core/AVR8/../AVR8/Endpoint_AVR8.h **** 				return ((Endpoint_GetEndpointInterrupts() & (1 << (Address & ENDPOINT_EPNUM_MASK))) ? true : fa
 396:../../tmk_core/protocol/lufa/LUFA-git/LUFA/Drivers/USB/Core/AVR8/../AVR8/Endpoint_AVR8.h **** 			}
 397:../../tmk_core/protocol/lufa/LUFA-git/LUFA/Drivers/USB/Core/AVR8/../AVR8/Endpoint_AVR8.h **** 
 398:../../tmk_core/protocol/lufa/LUFA-git/LUFA/Drivers/USB/Core/AVR8/../AVR8/Endpoint_AVR8.h **** 			/** Determines if the selected IN endpoint is ready for a new packet to be sent to the host.
 399:../../tmk_core/protocol/lufa/LUFA-git/LUFA/Drivers/USB/Core/AVR8/../AVR8/Endpoint_AVR8.h **** 			 *
 400:../../tmk_core/protocol/lufa/LUFA-git/LUFA/Drivers/USB/Core/AVR8/../AVR8/Endpoint_AVR8.h **** 			 *  \ingroup Group_EndpointPacketManagement_AVR8
 401:../../tmk_core/protocol/lufa/LUFA-git/LUFA/Drivers/USB/Core/AVR8/../AVR8/Endpoint_AVR8.h **** 			 *
 402:../../tmk_core/protocol/lufa/LUFA-git/LUFA/Drivers/USB/Core/AVR8/../AVR8/Endpoint_AVR8.h **** 			 *  \return Boolean \c true if the current endpoint is ready for an IN packet, \c false otherwis
 403:../../tmk_core/protocol/lufa/LUFA-git/LUFA/Drivers/USB/Core/AVR8/../AVR8/Endpoint_AVR8.h **** 			 */
 404:../../tmk_core/protocol/lufa/LUFA-git/LUFA/Drivers/USB/Core/AVR8/../AVR8/Endpoint_AVR8.h **** 			static inline bool Endpoint_IsINReady(void) ATTR_WARN_UNUSED_RESULT ATTR_ALWAYS_INLINE;
 405:../../tmk_core/protocol/lufa/LUFA-git/LUFA/Drivers/USB/Core/AVR8/../AVR8/Endpoint_AVR8.h **** 			static inline bool Endpoint_IsINReady(void)
 406:../../tmk_core/protocol/lufa/LUFA-git/LUFA/Drivers/USB/Core/AVR8/../AVR8/Endpoint_AVR8.h **** 			{
 407:../../tmk_core/protocol/lufa/LUFA-git/LUFA/Drivers/USB/Core/AVR8/../AVR8/Endpoint_AVR8.h **** 				return ((UEINTX & (1 << TXINI)) ? true : false);
 408:../../tmk_core/protocol/lufa/LUFA-git/LUFA/Drivers/USB/Core/AVR8/../AVR8/Endpoint_AVR8.h **** 			}
 409:../../tmk_core/protocol/lufa/LUFA-git/LUFA/Drivers/USB/Core/AVR8/../AVR8/Endpoint_AVR8.h **** 
 410:../../tmk_core/protocol/lufa/LUFA-git/LUFA/Drivers/USB/Core/AVR8/../AVR8/Endpoint_AVR8.h **** 			/** Determines if the selected OUT endpoint has received new packet from the host.
 411:../../tmk_core/protocol/lufa/LUFA-git/LUFA/Drivers/USB/Core/AVR8/../AVR8/Endpoint_AVR8.h **** 			 *
 412:../../tmk_core/protocol/lufa/LUFA-git/LUFA/Drivers/USB/Core/AVR8/../AVR8/Endpoint_AVR8.h **** 			 *  \ingroup Group_EndpointPacketManagement_AVR8
 413:../../tmk_core/protocol/lufa/LUFA-git/LUFA/Drivers/USB/Core/AVR8/../AVR8/Endpoint_AVR8.h **** 			 *
 414:../../tmk_core/protocol/lufa/LUFA-git/LUFA/Drivers/USB/Core/AVR8/../AVR8/Endpoint_AVR8.h **** 			 *  \return Boolean \c true if current endpoint is has received an OUT packet, \c false otherwis
 415:../../tmk_core/protocol/lufa/LUFA-git/LUFA/Drivers/USB/Core/AVR8/../AVR8/Endpoint_AVR8.h **** 			 */
 416:../../tmk_core/protocol/lufa/LUFA-git/LUFA/Drivers/USB/Core/AVR8/../AVR8/Endpoint_AVR8.h **** 			static inline bool Endpoint_IsOUTReceived(void) ATTR_WARN_UNUSED_RESULT ATTR_ALWAYS_INLINE;
 417:../../tmk_core/protocol/lufa/LUFA-git/LUFA/Drivers/USB/Core/AVR8/../AVR8/Endpoint_AVR8.h **** 			static inline bool Endpoint_IsOUTReceived(void)
 418:../../tmk_core/protocol/lufa/LUFA-git/LUFA/Drivers/USB/Core/AVR8/../AVR8/Endpoint_AVR8.h **** 			{
 419:../../tmk_core/protocol/lufa/LUFA-git/LUFA/Drivers/USB/Core/AVR8/../AVR8/Endpoint_AVR8.h **** 				return ((UEINTX & (1 << RXOUTI)) ? true : false);
 420:../../tmk_core/protocol/lufa/LUFA-git/LUFA/Drivers/USB/Core/AVR8/../AVR8/Endpoint_AVR8.h **** 			}
 421:../../tmk_core/protocol/lufa/LUFA-git/LUFA/Drivers/USB/Core/AVR8/../AVR8/Endpoint_AVR8.h **** 
 422:../../tmk_core/protocol/lufa/LUFA-git/LUFA/Drivers/USB/Core/AVR8/../AVR8/Endpoint_AVR8.h **** 			/** Determines if the current CONTROL type endpoint has received a SETUP packet.
 423:../../tmk_core/protocol/lufa/LUFA-git/LUFA/Drivers/USB/Core/AVR8/../AVR8/Endpoint_AVR8.h **** 			 *
 424:../../tmk_core/protocol/lufa/LUFA-git/LUFA/Drivers/USB/Core/AVR8/../AVR8/Endpoint_AVR8.h **** 			 *  \ingroup Group_EndpointPacketManagement_AVR8
 425:../../tmk_core/protocol/lufa/LUFA-git/LUFA/Drivers/USB/Core/AVR8/../AVR8/Endpoint_AVR8.h **** 			 *
 426:../../tmk_core/protocol/lufa/LUFA-git/LUFA/Drivers/USB/Core/AVR8/../AVR8/Endpoint_AVR8.h **** 			 *  \return Boolean \c true if the selected endpoint has received a SETUP packet, \c false other
 427:../../tmk_core/protocol/lufa/LUFA-git/LUFA/Drivers/USB/Core/AVR8/../AVR8/Endpoint_AVR8.h **** 			 */
 428:../../tmk_core/protocol/lufa/LUFA-git/LUFA/Drivers/USB/Core/AVR8/../AVR8/Endpoint_AVR8.h **** 			static inline bool Endpoint_IsSETUPReceived(void) ATTR_WARN_UNUSED_RESULT ATTR_ALWAYS_INLINE;
 429:../../tmk_core/protocol/lufa/LUFA-git/LUFA/Drivers/USB/Core/AVR8/../AVR8/Endpoint_AVR8.h **** 			static inline bool Endpoint_IsSETUPReceived(void)
 430:../../tmk_core/protocol/lufa/LUFA-git/LUFA/Drivers/USB/Core/AVR8/../AVR8/Endpoint_AVR8.h **** 			{
 431:../../tmk_core/protocol/lufa/LUFA-git/LUFA/Drivers/USB/Core/AVR8/../AVR8/Endpoint_AVR8.h **** 				return ((UEINTX & (1 << RXSTPI)) ? true : false);
 432:../../tmk_core/protocol/lufa/LUFA-git/LUFA/Drivers/USB/Core/AVR8/../AVR8/Endpoint_AVR8.h **** 			}
 433:../../tmk_core/protocol/lufa/LUFA-git/LUFA/Drivers/USB/Core/AVR8/../AVR8/Endpoint_AVR8.h **** 
 434:../../tmk_core/protocol/lufa/LUFA-git/LUFA/Drivers/USB/Core/AVR8/../AVR8/Endpoint_AVR8.h **** 			/** Clears a received SETUP packet on the currently selected CONTROL type endpoint, freeing up t
 435:../../tmk_core/protocol/lufa/LUFA-git/LUFA/Drivers/USB/Core/AVR8/../AVR8/Endpoint_AVR8.h **** 			 *  endpoint for the next packet.
 436:../../tmk_core/protocol/lufa/LUFA-git/LUFA/Drivers/USB/Core/AVR8/../AVR8/Endpoint_AVR8.h **** 			 *
 437:../../tmk_core/protocol/lufa/LUFA-git/LUFA/Drivers/USB/Core/AVR8/../AVR8/Endpoint_AVR8.h **** 			 *  \ingroup Group_EndpointPacketManagement_AVR8
 438:../../tmk_core/protocol/lufa/LUFA-git/LUFA/Drivers/USB/Core/AVR8/../AVR8/Endpoint_AVR8.h **** 			 *
 439:../../tmk_core/protocol/lufa/LUFA-git/LUFA/Drivers/USB/Core/AVR8/../AVR8/Endpoint_AVR8.h **** 			 *  \note This is not applicable for non CONTROL type endpoints.
 440:../../tmk_core/protocol/lufa/LUFA-git/LUFA/Drivers/USB/Core/AVR8/../AVR8/Endpoint_AVR8.h **** 			 */
 441:../../tmk_core/protocol/lufa/LUFA-git/LUFA/Drivers/USB/Core/AVR8/../AVR8/Endpoint_AVR8.h **** 			static inline void Endpoint_ClearSETUP(void) ATTR_ALWAYS_INLINE;
 442:../../tmk_core/protocol/lufa/LUFA-git/LUFA/Drivers/USB/Core/AVR8/../AVR8/Endpoint_AVR8.h **** 			static inline void Endpoint_ClearSETUP(void)
 443:../../tmk_core/protocol/lufa/LUFA-git/LUFA/Drivers/USB/Core/AVR8/../AVR8/Endpoint_AVR8.h **** 			{
 444:../../tmk_core/protocol/lufa/LUFA-git/LUFA/Drivers/USB/Core/AVR8/../AVR8/Endpoint_AVR8.h **** 				UEINTX &= ~(1 << RXSTPI);
 445:../../tmk_core/protocol/lufa/LUFA-git/LUFA/Drivers/USB/Core/AVR8/../AVR8/Endpoint_AVR8.h **** 			}
 446:../../tmk_core/protocol/lufa/LUFA-git/LUFA/Drivers/USB/Core/AVR8/../AVR8/Endpoint_AVR8.h **** 
 447:../../tmk_core/protocol/lufa/LUFA-git/LUFA/Drivers/USB/Core/AVR8/../AVR8/Endpoint_AVR8.h **** 			/** Sends an IN packet to the host on the currently selected endpoint, freeing up the endpoint f
 448:../../tmk_core/protocol/lufa/LUFA-git/LUFA/Drivers/USB/Core/AVR8/../AVR8/Endpoint_AVR8.h **** 			 *  next packet and switching to the alternative endpoint bank if double banked.
 449:../../tmk_core/protocol/lufa/LUFA-git/LUFA/Drivers/USB/Core/AVR8/../AVR8/Endpoint_AVR8.h **** 			 *
 450:../../tmk_core/protocol/lufa/LUFA-git/LUFA/Drivers/USB/Core/AVR8/../AVR8/Endpoint_AVR8.h **** 			 *  \ingroup Group_EndpointPacketManagement_AVR8
 451:../../tmk_core/protocol/lufa/LUFA-git/LUFA/Drivers/USB/Core/AVR8/../AVR8/Endpoint_AVR8.h **** 			 */
 452:../../tmk_core/protocol/lufa/LUFA-git/LUFA/Drivers/USB/Core/AVR8/../AVR8/Endpoint_AVR8.h **** 			static inline void Endpoint_ClearIN(void) ATTR_ALWAYS_INLINE;
 453:../../tmk_core/protocol/lufa/LUFA-git/LUFA/Drivers/USB/Core/AVR8/../AVR8/Endpoint_AVR8.h **** 			static inline void Endpoint_ClearIN(void)
 454:../../tmk_core/protocol/lufa/LUFA-git/LUFA/Drivers/USB/Core/AVR8/../AVR8/Endpoint_AVR8.h **** 			{
 455:../../tmk_core/protocol/lufa/LUFA-git/LUFA/Drivers/USB/Core/AVR8/../AVR8/Endpoint_AVR8.h **** 				#if !defined(CONTROL_ONLY_DEVICE)
 456:../../tmk_core/protocol/lufa/LUFA-git/LUFA/Drivers/USB/Core/AVR8/../AVR8/Endpoint_AVR8.h **** 					UEINTX &= ~((1 << TXINI) | (1 << FIFOCON));
 126               		.loc 2 456 0
 127 0052 8091 E800 		lds r24,232
 128 0056 8E77      		andi r24,lo8(126)
 129 0058 8093 E800 		sts 232,r24
 130               	.LVL11:
 131               	.L2:
 132               	/* epilogue start */
 133               	.LBE267:
 134               	.LBE266:
 570:../../tmk_core/protocol/lufa/lufa.c ****     Endpoint_ClearIN();
 571:../../tmk_core/protocol/lufa/lufa.c **** #endif
 572:../../tmk_core/protocol/lufa/lufa.c **** }
 135               		.loc 1 572 0
 136 005c 0F90      		pop __tmp_reg__
 137 005e 0F90      		pop __tmp_reg__
 138 0060 0F90      		pop __tmp_reg__
 139 0062 DF91      		pop r29
 140 0064 CF91      		pop r28
 141 0066 0895      		ret
 142               		.cfi_endproc
 143               	.LFE131:
 145               		.section	.text.send_system,"ax",@progbits
 147               	send_system:
 148               	.LFB130:
 529:../../tmk_core/protocol/lufa/lufa.c **** #ifdef EXTRAKEY_ENABLE
 149               		.loc 1 529 0
 150               		.cfi_startproc
 151               	.LVL12:
 152 0000 CF93      		push r28
 153               	.LCFI4:
 154               		.cfi_def_cfa_offset 3
 155               		.cfi_offset 28, -2
 156 0002 DF93      		push r29
 157               	.LCFI5:
 158               		.cfi_def_cfa_offset 4
 159               		.cfi_offset 29, -3
 160 0004 00D0      		rcall .
 161 0006 1F92      		push __zero_reg__
 162               	.LCFI6:
 163               		.cfi_def_cfa_offset 7
 164 0008 CDB7      		in r28,__SP_L__
 165 000a DEB7      		in r29,__SP_H__
 166               	.LCFI7:
 167               		.cfi_def_cfa_register 28
 168               	/* prologue: function */
 169               	/* frame size = 3 */
 170               	/* stack size = 5 */
 171               	.L__stack_usage = 5
 172               	.LVL13:
 533:../../tmk_core/protocol/lufa/lufa.c ****         return;
 173               		.loc 1 533 0
 174 000c 2091 0000 		lds r18,USB_DeviceState
 175 0010 2430      		cpi r18,lo8(4)
 176 0012 01F4      		brne .L15
 536:../../tmk_core/protocol/lufa/lufa.c ****         .report_id = REPORT_ID_SYSTEM,
 177               		.loc 1 536 0
 178 0014 22E0      		ldi r18,lo8(2)
 179 0016 2983      		std Y+1,r18
 180 0018 8058      		subi r24,-128
 181 001a 9109      		sbc r25,__zero_reg__
 182               	.LVL14:
 183 001c 9B83      		std Y+3,r25
 184 001e 8A83      		std Y+2,r24
 185               	.LVL15:
 186               	.LBB268:
 187               	.LBB269:
 270:../../tmk_core/protocol/lufa/LUFA-git/LUFA/Drivers/USB/Core/AVR8/../AVR8/Endpoint_AVR8.h **** 				#endif
 188               		.loc 2 270 0
 189 0020 83E0      		ldi r24,lo8(3)
 190               	.LVL16:
 191 0022 8093 E900 		sts 233,r24
 192               	.LVL17:
 193 0026 8FEF      		ldi r24,lo8(-1)
 194               	.LVL18:
 195               	.L17:
 196               	.LBE269:
 197               	.LBE268:
 198               	.LBB270:
 199               	.LBB271:
 360:../../tmk_core/protocol/lufa/LUFA-git/LUFA/Drivers/USB/Core/AVR8/../AVR8/Endpoint_AVR8.h **** 			}
 200               		.loc 2 360 0
 201 0028 9091 E800 		lds r25,232
 202 002c 8150      		subi r24,lo8(-(-1))
 203               	.LVL19:
 204               	.LBE271:
 205               	.LBE270:
 543:../../tmk_core/protocol/lufa/lufa.c ****     if (!Endpoint_IsReadWriteAllowed()) return;
 206               		.loc 1 543 0
 207 002e 95FD      		sbrc r25,5
 208 0030 00C0      		rjmp .L18
 209               	.LVL20:
 210               	.LBB272:
 211               	.LBB273:
 212               		.loc 3 276 0
 213 0032 95ED      		ldi r25,lo8(-43)
 214 0034 9A95      	1:	dec r25
 215 0036 01F4      		brne 1b
 216 0038 0000      		nop
 217               	.LVL21:
 218               	.LBE273:
 219               	.LBE272:
 543:../../tmk_core/protocol/lufa/lufa.c ****     if (!Endpoint_IsReadWriteAllowed()) return;
 220               		.loc 1 543 0
 221 003a 8111      		cpse r24,__zero_reg__
 222 003c 00C0      		rjmp .L17
 223               	.LVL22:
 224               	.L18:
 225               	.LBB274:
 226               	.LBB275:
 360:../../tmk_core/protocol/lufa/LUFA-git/LUFA/Drivers/USB/Core/AVR8/../AVR8/Endpoint_AVR8.h **** 			}
 227               		.loc 2 360 0
 228 003e 8091 E800 		lds r24,232
 229               	.LBE275:
 230               	.LBE274:
 544:../../tmk_core/protocol/lufa/lufa.c **** 
 231               		.loc 1 544 0
 232 0042 85FF      		sbrs r24,5
 233 0044 00C0      		rjmp .L15
 546:../../tmk_core/protocol/lufa/lufa.c ****     Endpoint_ClearIN();
 234               		.loc 1 546 0
 235 0046 40E0      		ldi r20,0
 236 0048 50E0      		ldi r21,0
 237 004a 63E0      		ldi r22,lo8(3)
 238 004c 70E0      		ldi r23,0
 239 004e CE01      		movw r24,r28
 240 0050 0196      		adiw r24,1
 241 0052 0E94 0000 		call Endpoint_Write_Stream_LE
 242               	.LVL23:
 243               	.LBB276:
 244               	.LBB277:
 245               		.loc 2 456 0
 246 0056 8091 E800 		lds r24,232
 247 005a 8E77      		andi r24,lo8(126)
 248 005c 8093 E800 		sts 232,r24
 249               	.LVL24:
 250               	.L15:
 251               	/* epilogue start */
 252               	.LBE277:
 253               	.LBE276:
 549:../../tmk_core/protocol/lufa/lufa.c **** 
 254               		.loc 1 549 0
 255 0060 0F90      		pop __tmp_reg__
 256 0062 0F90      		pop __tmp_reg__
 257 0064 0F90      		pop __tmp_reg__
 258 0066 DF91      		pop r29
 259 0068 CF91      		pop r28
 260 006a 0895      		ret
 261               		.cfi_endproc
 262               	.LFE130:
 264               		.section	.text.send_mouse,"ax",@progbits
 266               	send_mouse:
 267               	.LFB129:
 506:../../tmk_core/protocol/lufa/lufa.c **** #ifdef MOUSE_ENABLE
 268               		.loc 1 506 0
 269               		.cfi_startproc
 270               	.LVL25:
 271               	/* prologue: function */
 272               	/* frame size = 0 */
 273               	/* stack size = 0 */
 274               	.L__stack_usage = 0
 510:../../tmk_core/protocol/lufa/lufa.c ****         return;
 275               		.loc 1 510 0
 276 0000 2091 0000 		lds r18,USB_DeviceState
 277 0004 2430      		cpi r18,lo8(4)
 278 0006 01F4      		brne .L27
 279               	.LVL26:
 280               	.LBB278:
 281               	.LBB279:
 270:../../tmk_core/protocol/lufa/LUFA-git/LUFA/Drivers/USB/Core/AVR8/../AVR8/Endpoint_AVR8.h **** 				#endif
 282               		.loc 2 270 0
 283 0008 22E0      		ldi r18,lo8(2)
 284 000a 2093 E900 		sts 233,r18
 285               	.LVL27:
 286 000e 2FEF      		ldi r18,lo8(-1)
 287               	.LVL28:
 288               	.L30:
 289               	.LBE279:
 290               	.LBE278:
 291               	.LBB280:
 292               	.LBB281:
 360:../../tmk_core/protocol/lufa/LUFA-git/LUFA/Drivers/USB/Core/AVR8/../AVR8/Endpoint_AVR8.h **** 			}
 293               		.loc 2 360 0
 294 0010 3091 E800 		lds r19,232
 295 0014 2150      		subi r18,lo8(-(-1))
 296               	.LVL29:
 297               	.LBE281:
 298               	.LBE280:
 517:../../tmk_core/protocol/lufa/lufa.c ****     if (!Endpoint_IsReadWriteAllowed()) return;
 299               		.loc 1 517 0
 300 0016 35FD      		sbrc r19,5
 301 0018 00C0      		rjmp .L31
 302               	.LVL30:
 303               	.LBB282:
 304               	.LBB283:
 305               		.loc 3 276 0
 306 001a 35ED      		ldi r19,lo8(-43)
 307 001c 3A95      	1:	dec r19
 308 001e 01F4      		brne 1b
 309 0020 0000      		nop
 310               	.LVL31:
 311               	.LBE283:
 312               	.LBE282:
 517:../../tmk_core/protocol/lufa/lufa.c ****     if (!Endpoint_IsReadWriteAllowed()) return;
 313               		.loc 1 517 0
 314 0022 2111      		cpse r18,__zero_reg__
 315 0024 00C0      		rjmp .L30
 316               	.LVL32:
 317               	.L31:
 318               	.LBB284:
 319               	.LBB285:
 360:../../tmk_core/protocol/lufa/LUFA-git/LUFA/Drivers/USB/Core/AVR8/../AVR8/Endpoint_AVR8.h **** 			}
 320               		.loc 2 360 0
 321 0026 2091 E800 		lds r18,232
 322               	.LBE285:
 323               	.LBE284:
 518:../../tmk_core/protocol/lufa/lufa.c **** 
 324               		.loc 1 518 0
 325 002a 25FF      		sbrs r18,5
 326 002c 00C0      		rjmp .L27
 521:../../tmk_core/protocol/lufa/lufa.c **** 
 327               		.loc 1 521 0
 328 002e 40E0      		ldi r20,0
 329 0030 50E0      		ldi r21,0
 330 0032 65E0      		ldi r22,lo8(5)
 331 0034 70E0      		ldi r23,0
 332 0036 0E94 0000 		call Endpoint_Write_Stream_LE
 333               	.LVL33:
 334               	.LBB286:
 335               	.LBB287:
 336               		.loc 2 456 0
 337 003a 8091 E800 		lds r24,232
 338 003e 8E77      		andi r24,lo8(126)
 339 0040 8093 E800 		sts 232,r24
 340               	.LVL34:
 341               	.L27:
 342 0044 0895      		ret
 343               	.LBE287:
 344               	.LBE286:
 345               		.cfi_endproc
 346               	.LFE129:
 348               		.section	.text.send_keyboard,"ax",@progbits
 350               	send_keyboard:
 351               	.LFB128:
 466:../../tmk_core/protocol/lufa/lufa.c ****     uint8_t timeout = 128;
 352               		.loc 1 466 0
 353               		.cfi_startproc
 354               	.LVL35:
 355 0000 CF93      		push r28
 356               	.LCFI8:
 357               		.cfi_def_cfa_offset 3
 358               		.cfi_offset 28, -2
 359 0002 DF93      		push r29
 360               	.LCFI9:
 361               		.cfi_def_cfa_offset 4
 362               		.cfi_offset 29, -3
 363               	/* prologue: function */
 364               	/* frame size = 0 */
 365               	/* stack size = 2 */
 366               	.L__stack_usage = 2
 367               	.LVL36:
 469:../../tmk_core/protocol/lufa/lufa.c ****         return;
 368               		.loc 1 469 0
 369 0004 2091 0000 		lds r18,USB_DeviceState
 370 0008 2430      		cpi r18,lo8(4)
 371 000a 01F0      		breq .+2
 372 000c 00C0      		rjmp .L40
 373 000e EC01      		movw r28,r24
 474:../../tmk_core/protocol/lufa/lufa.c ****         /* Report protocol - NKRO */
 374               		.loc 1 474 0
 375 0010 8091 0000 		lds r24,keyboard_protocol
 376               	.LVL37:
 377 0014 8823      		tst r24
 378 0016 01F0      		breq .L43
 474:../../tmk_core/protocol/lufa/lufa.c ****         /* Report protocol - NKRO */
 379               		.loc 1 474 0 is_stmt 0 discriminator 1
 380 0018 8091 0000 		lds r24,keyboard_nkro
 381 001c 8823      		tst r24
 382 001e 01F0      		breq .L43
 383               	.LVL38:
 384               	.LBB288:
 385               	.LBB289:
 270:../../tmk_core/protocol/lufa/LUFA-git/LUFA/Drivers/USB/Core/AVR8/../AVR8/Endpoint_AVR8.h **** 				#endif
 386               		.loc 2 270 0 is_stmt 1
 387 0020 85E0      		ldi r24,lo8(5)
 388 0022 8093 E900 		sts 233,r24
 389 0026 81E8      		ldi r24,lo8(-127)
 390               	.LVL39:
 391               	.L44:
 392 0028 8150      		subi r24,lo8(-(-1))
 393               	.LVL40:
 394               	.LBE289:
 395               	.LBE288:
 479:../../tmk_core/protocol/lufa/lufa.c ****         if (!Endpoint_IsReadWriteAllowed()) return;
 396               		.loc 1 479 0 discriminator 1
 397 002a 01F0      		breq .L45
 398               	.LVL41:
 399               	.LBB290:
 400               	.LBB291:
 360:../../tmk_core/protocol/lufa/LUFA-git/LUFA/Drivers/USB/Core/AVR8/../AVR8/Endpoint_AVR8.h **** 			}
 401               		.loc 2 360 0
 402 002c 9091 E800 		lds r25,232
 403               	.LBE291:
 404               	.LBE290:
 479:../../tmk_core/protocol/lufa/lufa.c ****         if (!Endpoint_IsReadWriteAllowed()) return;
 405               		.loc 1 479 0
 406 0030 95FD      		sbrc r25,5
 407 0032 00C0      		rjmp .L45
 408               	.LVL42:
 409               	.LBB292:
 410               	.LBB293:
 411               		.loc 3 276 0
 412 0034 9AE2      		ldi r25,lo8(42)
 413 0036 9A95      	1:	dec r25
 414 0038 01F4      		brne 1b
 415 003a 00C0      		rjmp .
 416 003c 00C0      		rjmp .L44
 417               	.LVL43:
 418               	.L45:
 419               	.LBE293:
 420               	.LBE292:
 421               	.LBB294:
 422               	.LBB295:
 360:../../tmk_core/protocol/lufa/LUFA-git/LUFA/Drivers/USB/Core/AVR8/../AVR8/Endpoint_AVR8.h **** 			}
 423               		.loc 2 360 0
 424 003e 8091 E800 		lds r24,232
 425               	.LBE295:
 426               	.LBE294:
 480:../../tmk_core/protocol/lufa/lufa.c **** 
 427               		.loc 1 480 0
 428 0042 85FF      		sbrs r24,5
 429 0044 00C0      		rjmp .L40
 483:../../tmk_core/protocol/lufa/lufa.c ****     }
 430               		.loc 1 483 0
 431 0046 40E0      		ldi r20,0
 432 0048 50E0      		ldi r21,0
 433 004a 60E2      		ldi r22,lo8(32)
 434 004c 70E0      		ldi r23,0
 435 004e 00C0      		rjmp .L70
 436               	.LVL44:
 437               	.L43:
 438               	.LBB296:
 439               	.LBB297:
 270:../../tmk_core/protocol/lufa/LUFA-git/LUFA/Drivers/USB/Core/AVR8/../AVR8/Endpoint_AVR8.h **** 				#endif
 440               		.loc 2 270 0
 441 0050 81E0      		ldi r24,lo8(1)
 442 0052 8093 E900 		sts 233,r24
 443 0056 81E8      		ldi r24,lo8(-127)
 444               	.LVL45:
 445               	.L49:
 446 0058 8150      		subi r24,lo8(-(-1))
 447               	.LVL46:
 448               	.LBE297:
 449               	.LBE296:
 492:../../tmk_core/protocol/lufa/lufa.c ****         if (!Endpoint_IsReadWriteAllowed()) return;
 450               		.loc 1 492 0 discriminator 1
 451 005a 01F0      		breq .L50
 452               	.LVL47:
 453               	.LBB298:
 454               	.LBB299:
 360:../../tmk_core/protocol/lufa/LUFA-git/LUFA/Drivers/USB/Core/AVR8/../AVR8/Endpoint_AVR8.h **** 			}
 455               		.loc 2 360 0
 456 005c 9091 E800 		lds r25,232
 457               	.LBE299:
 458               	.LBE298:
 492:../../tmk_core/protocol/lufa/lufa.c ****         if (!Endpoint_IsReadWriteAllowed()) return;
 459               		.loc 1 492 0
 460 0060 95FD      		sbrc r25,5
 461 0062 00C0      		rjmp .L50
 462               	.LVL48:
 463               	.LBB300:
 464               	.LBB301:
 465               		.loc 3 276 0
 466 0064 EFE3      		ldi r30,lo8(319)
 467 0066 F1E0      		ldi r31,hi8(319)
 468 0068 3197      	1:	sbiw r30,1
 469 006a 01F4      		brne 1b
 470 006c 00C0      		rjmp .
 471 006e 0000      		nop
 472 0070 00C0      		rjmp .L49
 473               	.LVL49:
 474               	.L50:
 475               	.LBE301:
 476               	.LBE300:
 477               	.LBB302:
 478               	.LBB303:
 360:../../tmk_core/protocol/lufa/LUFA-git/LUFA/Drivers/USB/Core/AVR8/../AVR8/Endpoint_AVR8.h **** 			}
 479               		.loc 2 360 0
 480 0072 8091 E800 		lds r24,232
 481               	.LBE303:
 482               	.LBE302:
 493:../../tmk_core/protocol/lufa/lufa.c **** 
 483               		.loc 1 493 0
 484 0076 85FF      		sbrs r24,5
 485 0078 00C0      		rjmp .L40
 496:../../tmk_core/protocol/lufa/lufa.c ****     }
 486               		.loc 1 496 0
 487 007a 40E0      		ldi r20,0
 488 007c 50E0      		ldi r21,0
 489 007e 68E0      		ldi r22,lo8(8)
 490 0080 70E0      		ldi r23,0
 491               	.LVL50:
 492               	.L70:
 493 0082 CE01      		movw r24,r28
 494 0084 0E94 0000 		call Endpoint_Write_Stream_LE
 495               	.LVL51:
 496               	.LBB304:
 497               	.LBB305:
 498               		.loc 2 456 0
 499 0088 8091 E800 		lds r24,232
 500 008c 8E77      		andi r24,lo8(126)
 501 008e 8093 E800 		sts 232,r24
 502               	.LBE305:
 503               	.LBE304:
 502:../../tmk_core/protocol/lufa/lufa.c **** }
 504               		.loc 1 502 0
 505 0092 80E2      		ldi r24,lo8(32)
 506 0094 FE01      		movw r30,r28
 507 0096 A0E0      		ldi r26,lo8(keyboard_report_sent)
 508 0098 B0E0      		ldi r27,hi8(keyboard_report_sent)
 509               		0:
 510 009a 0190      		ld r0,Z+
 511 009c 0D92      		st X+,r0
 512 009e 8A95      		dec r24
 513 00a0 01F4      		brne 0b
 514               	.LVL52:
 515               	.L40:
 516               	/* epilogue start */
 503:../../tmk_core/protocol/lufa/lufa.c **** 
 517               		.loc 1 503 0
 518 00a2 DF91      		pop r29
 519 00a4 CF91      		pop r28
 520 00a6 0895      		ret
 521               		.cfi_endproc
 522               	.LFE128:
 524               		.section	.text.console_is_ready,"ax",@progbits
 526               	console_is_ready:
 527               	.LFB115:
 107:../../tmk_core/protocol/lufa/lufa.c ****     static bool hid_listen_ready = false;
 528               		.loc 1 107 0
 529               		.cfi_startproc
 530 0000 CF93      		push r28
 531               	.LCFI10:
 532               		.cfi_def_cfa_offset 3
 533               		.cfi_offset 28, -2
 534               	/* prologue: function */
 535               	/* frame size = 0 */
 536               	/* stack size = 1 */
 537               	.L__stack_usage = 1
 109:../../tmk_core/protocol/lufa/lufa.c ****         if (timer_read32() < 2500)
 538               		.loc 1 109 0
 539 0002 C091 0000 		lds r28,hid_listen_ready.4986
 540 0006 C111      		cpse r28,__zero_reg__
 541 0008 00C0      		rjmp .L72
 110:../../tmk_core/protocol/lufa/lufa.c ****             return false;
 542               		.loc 1 110 0
 543 000a 0E94 0000 		call timer_read32
 544               	.LVL53:
 545 000e 643C      		cpi r22,-60
 546 0010 7940      		sbci r23,9
 547 0012 8105      		cpc r24,__zero_reg__
 548 0014 9105      		cpc r25,__zero_reg__
 549 0016 00F0      		brlo .L72
 112:../../tmk_core/protocol/lufa/lufa.c ****     }
 550               		.loc 1 112 0
 551 0018 81E0      		ldi r24,lo8(1)
 552 001a 8093 0000 		sts hid_listen_ready.4986,r24
 114:../../tmk_core/protocol/lufa/lufa.c **** }
 553               		.loc 1 114 0
 554 001e C1E0      		ldi r28,lo8(1)
 555               	.L72:
 115:../../tmk_core/protocol/lufa/lufa.c **** 
 556               		.loc 1 115 0
 557 0020 8C2F      		mov r24,r28
 558               	/* epilogue start */
 559 0022 CF91      		pop r28
 560 0024 0895      		ret
 561               		.cfi_endproc
 562               	.LFE115:
 564               		.section	.text.sendchar,"ax",@progbits
 565               	.global	sendchar
 567               	sendchar:
 568               	.LFB132:
 573:../../tmk_core/protocol/lufa/lufa.c **** 
 574:../../tmk_core/protocol/lufa/lufa.c **** 
 575:../../tmk_core/protocol/lufa/lufa.c **** /*******************************************************************************
 576:../../tmk_core/protocol/lufa/lufa.c ****  * sendchar
 577:../../tmk_core/protocol/lufa/lufa.c ****  ******************************************************************************/
 578:../../tmk_core/protocol/lufa/lufa.c **** #ifdef CONSOLE_ENABLE
 579:../../tmk_core/protocol/lufa/lufa.c **** int8_t sendchar(uint8_t c)
 580:../../tmk_core/protocol/lufa/lufa.c **** {
 569               		.loc 1 580 0
 570               		.cfi_startproc
 571               	.LVL54:
 572 0000 CF93      		push r28
 573               	.LCFI11:
 574               		.cfi_def_cfa_offset 3
 575               		.cfi_offset 28, -2
 576               	/* prologue: function */
 577               	/* frame size = 0 */
 578               	/* stack size = 1 */
 579               	.L__stack_usage = 1
 580 0002 C82F      		mov r28,r24
 581               	.LVL55:
 582               	.LBB342:
 583               	.LBB343:
 119:../../tmk_core/protocol/lufa/lufa.c ****         goto EXIT;
 584               		.loc 1 119 0
 585 0004 0E94 0000 		call console_is_ready
 586               	.LVL56:
 587 0008 8823      		tst r24
 588 000a 01F4      		brne .+2
 589 000c 00C0      		rjmp .L74
 123:../../tmk_core/protocol/lufa/lufa.c ****         goto EXIT;
 590               		.loc 1 123 0
 591 000e 0FB6      		in __tmp_reg__,__SREG__
 592 0010 07FE      		sbrs __tmp_reg__,7
 593 0012 00C0      		rjmp .L74
 126:../../tmk_core/protocol/lufa/lufa.c ****         goto EXIT;
 594               		.loc 1 126 0
 595 0014 8091 0000 		lds r24,USB_DeviceState
 596 0018 8430      		cpi r24,lo8(4)
 597 001a 01F0      		breq .+2
 598 001c 00C0      		rjmp .L74
 599               	.LBB344:
 600               	.LBB345:
 253:../../tmk_core/protocol/lufa/LUFA-git/LUFA/Drivers/USB/Core/AVR8/../AVR8/Endpoint_AVR8.h **** 				#else
 601               		.loc 2 253 0
 602 001e 8091 E900 		lds r24,233
 603 0022 8F70      		andi r24,lo8(15)
 604               	.LBB346:
 605               	.LBB347:
 240:../../tmk_core/protocol/lufa/LUFA-git/LUFA/Drivers/USB/Core/AVR8/../AVR8/Endpoint_AVR8.h **** 			}
 606               		.loc 2 240 0
 607 0024 2091 EC00 		lds r18,236
 608 0028 922F      		mov r25,r18
 609 002a 9170      		andi r25,lo8(1)
 610 002c 20FD      		sbrc r18,0
 611 002e 90E8      		ldi r25,lo8(-128)
 612               	.L75:
 613               	.LBE347:
 614               	.LBE346:
 253:../../tmk_core/protocol/lufa/LUFA-git/LUFA/Drivers/USB/Core/AVR8/../AVR8/Endpoint_AVR8.h **** 				#else
 615               		.loc 2 253 0
 616 0030 892B      		or r24,r25
 617               	.LVL57:
 618               	.LBE345:
 619               	.LBE344:
 620               	.LBB348:
 621               	.LBB349:
 270:../../tmk_core/protocol/lufa/LUFA-git/LUFA/Drivers/USB/Core/AVR8/../AVR8/Endpoint_AVR8.h **** 				#endif
 622               		.loc 2 270 0
 623 0032 94E0      		ldi r25,lo8(4)
 624 0034 9093 E900 		sts 233,r25
 625               	.LVL58:
 626               	.LBE349:
 627               	.LBE348:
 628               	.LBB350:
 629               	.LBB351:
 313:../../tmk_core/protocol/lufa/LUFA-git/LUFA/Drivers/USB/Core/AVR8/../AVR8/Endpoint_AVR8.h **** 			}
 630               		.loc 2 313 0
 631 0038 9091 EB00 		lds r25,235
 632               	.LBE351:
 633               	.LBE350:
 132:../../tmk_core/protocol/lufa/lufa.c ****         goto EXIT_RESTORE_EP;
 634               		.loc 1 132 0
 635 003c 90FF      		sbrs r25,0
 636 003e 00C0      		rjmp .L76
 637               	.LBB352:
 638               	.LBB353:
 370:../../tmk_core/protocol/lufa/LUFA-git/LUFA/Drivers/USB/Core/AVR8/../AVR8/Endpoint_AVR8.h **** 			}
 639               		.loc 2 370 0
 640 0040 9091 EE00 		lds r25,238
 641               	.LBE353:
 642               	.LBE352:
 132:../../tmk_core/protocol/lufa/lufa.c ****         goto EXIT_RESTORE_EP;
 643               		.loc 1 132 0
 644 0044 97FF      		sbrs r25,7
 645 0046 00C0      		rjmp .L76
 646               	.L77:
 647 0048 9091 0000 		lds r25,sendbuf+3
 648               	.LVL59:
 137:../../tmk_core/protocol/lufa/lufa.c ****         Endpoint_Write_8(ringbuf_get(&sendbuf));
 649               		.loc 1 137 0
 650 004c 2091 0000 		lds r18,sendbuf+2
 651 0050 2917      		cp r18,r25
 652 0052 01F4      		brne .+2
 653 0054 00C0      		rjmp .L79
 654               	.LBB354:
 655               	.LBB355:
 360:../../tmk_core/protocol/lufa/LUFA-git/LUFA/Drivers/USB/Core/AVR8/../AVR8/Endpoint_AVR8.h **** 			}
 656               		.loc 2 360 0
 657 0056 2091 E800 		lds r18,232
 658               	.LBE355:
 659               	.LBE354:
 137:../../tmk_core/protocol/lufa/lufa.c ****         Endpoint_Write_8(ringbuf_get(&sendbuf));
 660               		.loc 1 137 0
 661 005a 25FF      		sbrs r18,5
 662 005c 00C0      		rjmp .L76
 663               	.LVL60:
 664               	.LBB356:
 665               	.LBB357:
 666               		.file 4 "../../tmk_core/common/ringbuf.h"
   1:../../tmk_core/common/ringbuf.h **** #ifndef RINGBUF_H
   2:../../tmk_core/common/ringbuf.h **** #define RINGBUF_H
   3:../../tmk_core/common/ringbuf.h **** 
   4:../../tmk_core/common/ringbuf.h **** #include <stdint.h>
   5:../../tmk_core/common/ringbuf.h **** #include <stdbool.h>
   6:../../tmk_core/common/ringbuf.h **** 
   7:../../tmk_core/common/ringbuf.h **** // NOTE: buffer size must be 2^n and up to 255. size_mask should be 2^n - 1 due to using &(AND) ins
   8:../../tmk_core/common/ringbuf.h **** typedef struct {
   9:../../tmk_core/common/ringbuf.h ****     uint8_t *buffer;
  10:../../tmk_core/common/ringbuf.h ****     uint8_t head;
  11:../../tmk_core/common/ringbuf.h ****     uint8_t tail;
  12:../../tmk_core/common/ringbuf.h ****     uint8_t size_mask;
  13:../../tmk_core/common/ringbuf.h **** } ringbuf_t;
  14:../../tmk_core/common/ringbuf.h **** 
  15:../../tmk_core/common/ringbuf.h **** static inline void ringbuf_init(ringbuf_t *buf, uint8_t *array, uint8_t size);
  16:../../tmk_core/common/ringbuf.h **** static inline int16_t ringbuf_get(ringbuf_t *buf);
  17:../../tmk_core/common/ringbuf.h **** static inline bool ringbuf_put(ringbuf_t *buf, uint8_t data);
  18:../../tmk_core/common/ringbuf.h **** static inline void ringbuf_write(ringbuf_t *buf, uint8_t data);
  19:../../tmk_core/common/ringbuf.h **** static inline bool ringbuf_is_empty(ringbuf_t *buf);
  20:../../tmk_core/common/ringbuf.h **** static inline bool ringbuf_is_full(ringbuf_t *buf);
  21:../../tmk_core/common/ringbuf.h **** static inline void ringbuf_reset(ringbuf_t *buf);
  22:../../tmk_core/common/ringbuf.h **** 
  23:../../tmk_core/common/ringbuf.h **** static inline void ringbuf_init(ringbuf_t *buf, uint8_t *array, uint8_t size)
  24:../../tmk_core/common/ringbuf.h **** {
  25:../../tmk_core/common/ringbuf.h ****     buf->buffer = array;
  26:../../tmk_core/common/ringbuf.h ****     buf->head = 0;
  27:../../tmk_core/common/ringbuf.h ****     buf->tail = 0;
  28:../../tmk_core/common/ringbuf.h ****     buf->size_mask = size - 1;
  29:../../tmk_core/common/ringbuf.h **** }
  30:../../tmk_core/common/ringbuf.h **** static inline int16_t ringbuf_get(ringbuf_t *buf)
  31:../../tmk_core/common/ringbuf.h **** {
  32:../../tmk_core/common/ringbuf.h ****     if (ringbuf_is_empty(buf)) return -1;
  33:../../tmk_core/common/ringbuf.h ****     uint8_t data = buf->buffer[buf->tail];
 667               		.loc 4 33 0
 668 005e E091 0000 		lds r30,sendbuf
 669 0062 F091 0000 		lds r31,sendbuf+1
 670 0066 E90F      		add r30,r25
 671 0068 F11D      		adc r31,__zero_reg__
 672 006a 3081      		ld r19,Z
 673               	.LVL61:
  34:../../tmk_core/common/ringbuf.h ****     buf->tail++;
  35:../../tmk_core/common/ringbuf.h ****     buf->tail &= buf->size_mask;
 674               		.loc 4 35 0
 675 006c 9F5F      		subi r25,lo8(-(1))
 676 006e 2091 0000 		lds r18,sendbuf+4
 677 0072 9223      		and r25,r18
 678 0074 9093 0000 		sts sendbuf+3,r25
 679               	.LVL62:
 680               	.LBE357:
 681               	.LBE356:
 682               	.LBB358:
 683               	.LBB359:
 457:../../tmk_core/protocol/lufa/LUFA-git/LUFA/Drivers/USB/Core/AVR8/../AVR8/Endpoint_AVR8.h **** 				#else
 458:../../tmk_core/protocol/lufa/LUFA-git/LUFA/Drivers/USB/Core/AVR8/../AVR8/Endpoint_AVR8.h **** 					UEINTX &= ~(1 << TXINI);
 459:../../tmk_core/protocol/lufa/LUFA-git/LUFA/Drivers/USB/Core/AVR8/../AVR8/Endpoint_AVR8.h **** 				#endif
 460:../../tmk_core/protocol/lufa/LUFA-git/LUFA/Drivers/USB/Core/AVR8/../AVR8/Endpoint_AVR8.h **** 			}
 461:../../tmk_core/protocol/lufa/LUFA-git/LUFA/Drivers/USB/Core/AVR8/../AVR8/Endpoint_AVR8.h **** 
 462:../../tmk_core/protocol/lufa/LUFA-git/LUFA/Drivers/USB/Core/AVR8/../AVR8/Endpoint_AVR8.h **** 			/** Acknowledges an OUT packet to the host on the currently selected endpoint, freeing up the en
 463:../../tmk_core/protocol/lufa/LUFA-git/LUFA/Drivers/USB/Core/AVR8/../AVR8/Endpoint_AVR8.h **** 			 *  for the next packet and switching to the alternative endpoint bank if double banked.
 464:../../tmk_core/protocol/lufa/LUFA-git/LUFA/Drivers/USB/Core/AVR8/../AVR8/Endpoint_AVR8.h **** 			 *
 465:../../tmk_core/protocol/lufa/LUFA-git/LUFA/Drivers/USB/Core/AVR8/../AVR8/Endpoint_AVR8.h **** 			 *  \ingroup Group_EndpointPacketManagement_AVR8
 466:../../tmk_core/protocol/lufa/LUFA-git/LUFA/Drivers/USB/Core/AVR8/../AVR8/Endpoint_AVR8.h **** 			 */
 467:../../tmk_core/protocol/lufa/LUFA-git/LUFA/Drivers/USB/Core/AVR8/../AVR8/Endpoint_AVR8.h **** 			static inline void Endpoint_ClearOUT(void) ATTR_ALWAYS_INLINE;
 468:../../tmk_core/protocol/lufa/LUFA-git/LUFA/Drivers/USB/Core/AVR8/../AVR8/Endpoint_AVR8.h **** 			static inline void Endpoint_ClearOUT(void)
 469:../../tmk_core/protocol/lufa/LUFA-git/LUFA/Drivers/USB/Core/AVR8/../AVR8/Endpoint_AVR8.h **** 			{
 470:../../tmk_core/protocol/lufa/LUFA-git/LUFA/Drivers/USB/Core/AVR8/../AVR8/Endpoint_AVR8.h **** 				#if !defined(CONTROL_ONLY_DEVICE)
 471:../../tmk_core/protocol/lufa/LUFA-git/LUFA/Drivers/USB/Core/AVR8/../AVR8/Endpoint_AVR8.h **** 					UEINTX &= ~((1 << RXOUTI) | (1 << FIFOCON));
 472:../../tmk_core/protocol/lufa/LUFA-git/LUFA/Drivers/USB/Core/AVR8/../AVR8/Endpoint_AVR8.h **** 				#else
 473:../../tmk_core/protocol/lufa/LUFA-git/LUFA/Drivers/USB/Core/AVR8/../AVR8/Endpoint_AVR8.h **** 					UEINTX &= ~(1 << RXOUTI);
 474:../../tmk_core/protocol/lufa/LUFA-git/LUFA/Drivers/USB/Core/AVR8/../AVR8/Endpoint_AVR8.h **** 				#endif
 475:../../tmk_core/protocol/lufa/LUFA-git/LUFA/Drivers/USB/Core/AVR8/../AVR8/Endpoint_AVR8.h **** 			}
 476:../../tmk_core/protocol/lufa/LUFA-git/LUFA/Drivers/USB/Core/AVR8/../AVR8/Endpoint_AVR8.h **** 
 477:../../tmk_core/protocol/lufa/LUFA-git/LUFA/Drivers/USB/Core/AVR8/../AVR8/Endpoint_AVR8.h **** 			/** Stalls the current endpoint, indicating to the host that a logical problem occurred with the
 478:../../tmk_core/protocol/lufa/LUFA-git/LUFA/Drivers/USB/Core/AVR8/../AVR8/Endpoint_AVR8.h **** 			 *  indicated endpoint and that the current transfer sequence should be aborted. This provides a
 479:../../tmk_core/protocol/lufa/LUFA-git/LUFA/Drivers/USB/Core/AVR8/../AVR8/Endpoint_AVR8.h **** 			 *  way for devices to indicate invalid commands to the host so that the current transfer can be
 480:../../tmk_core/protocol/lufa/LUFA-git/LUFA/Drivers/USB/Core/AVR8/../AVR8/Endpoint_AVR8.h **** 			 *  aborted and the host can begin its own recovery sequence.
 481:../../tmk_core/protocol/lufa/LUFA-git/LUFA/Drivers/USB/Core/AVR8/../AVR8/Endpoint_AVR8.h **** 			 *
 482:../../tmk_core/protocol/lufa/LUFA-git/LUFA/Drivers/USB/Core/AVR8/../AVR8/Endpoint_AVR8.h **** 			 *  The currently selected endpoint remains stalled until either the \ref Endpoint_ClearStall() 
 483:../../tmk_core/protocol/lufa/LUFA-git/LUFA/Drivers/USB/Core/AVR8/../AVR8/Endpoint_AVR8.h **** 			 *  is called, or the host issues a CLEAR FEATURE request to the device for the currently select
 484:../../tmk_core/protocol/lufa/LUFA-git/LUFA/Drivers/USB/Core/AVR8/../AVR8/Endpoint_AVR8.h **** 			 *  endpoint.
 485:../../tmk_core/protocol/lufa/LUFA-git/LUFA/Drivers/USB/Core/AVR8/../AVR8/Endpoint_AVR8.h **** 			 *
 486:../../tmk_core/protocol/lufa/LUFA-git/LUFA/Drivers/USB/Core/AVR8/../AVR8/Endpoint_AVR8.h **** 			 *  \ingroup Group_EndpointPacketManagement_AVR8
 487:../../tmk_core/protocol/lufa/LUFA-git/LUFA/Drivers/USB/Core/AVR8/../AVR8/Endpoint_AVR8.h **** 			 */
 488:../../tmk_core/protocol/lufa/LUFA-git/LUFA/Drivers/USB/Core/AVR8/../AVR8/Endpoint_AVR8.h **** 			static inline void Endpoint_StallTransaction(void) ATTR_ALWAYS_INLINE;
 489:../../tmk_core/protocol/lufa/LUFA-git/LUFA/Drivers/USB/Core/AVR8/../AVR8/Endpoint_AVR8.h **** 			static inline void Endpoint_StallTransaction(void)
 490:../../tmk_core/protocol/lufa/LUFA-git/LUFA/Drivers/USB/Core/AVR8/../AVR8/Endpoint_AVR8.h **** 			{
 491:../../tmk_core/protocol/lufa/LUFA-git/LUFA/Drivers/USB/Core/AVR8/../AVR8/Endpoint_AVR8.h **** 				UECONX |= (1 << STALLRQ);
 492:../../tmk_core/protocol/lufa/LUFA-git/LUFA/Drivers/USB/Core/AVR8/../AVR8/Endpoint_AVR8.h **** 			}
 493:../../tmk_core/protocol/lufa/LUFA-git/LUFA/Drivers/USB/Core/AVR8/../AVR8/Endpoint_AVR8.h **** 
 494:../../tmk_core/protocol/lufa/LUFA-git/LUFA/Drivers/USB/Core/AVR8/../AVR8/Endpoint_AVR8.h **** 			/** Clears the STALL condition on the currently selected endpoint.
 495:../../tmk_core/protocol/lufa/LUFA-git/LUFA/Drivers/USB/Core/AVR8/../AVR8/Endpoint_AVR8.h **** 			 *
 496:../../tmk_core/protocol/lufa/LUFA-git/LUFA/Drivers/USB/Core/AVR8/../AVR8/Endpoint_AVR8.h **** 			 *  \ingroup Group_EndpointPacketManagement_AVR8
 497:../../tmk_core/protocol/lufa/LUFA-git/LUFA/Drivers/USB/Core/AVR8/../AVR8/Endpoint_AVR8.h **** 			 */
 498:../../tmk_core/protocol/lufa/LUFA-git/LUFA/Drivers/USB/Core/AVR8/../AVR8/Endpoint_AVR8.h **** 			static inline void Endpoint_ClearStall(void) ATTR_ALWAYS_INLINE;
 499:../../tmk_core/protocol/lufa/LUFA-git/LUFA/Drivers/USB/Core/AVR8/../AVR8/Endpoint_AVR8.h **** 			static inline void Endpoint_ClearStall(void)
 500:../../tmk_core/protocol/lufa/LUFA-git/LUFA/Drivers/USB/Core/AVR8/../AVR8/Endpoint_AVR8.h **** 			{
 501:../../tmk_core/protocol/lufa/LUFA-git/LUFA/Drivers/USB/Core/AVR8/../AVR8/Endpoint_AVR8.h **** 				UECONX |= (1 << STALLRQC);
 502:../../tmk_core/protocol/lufa/LUFA-git/LUFA/Drivers/USB/Core/AVR8/../AVR8/Endpoint_AVR8.h **** 			}
 503:../../tmk_core/protocol/lufa/LUFA-git/LUFA/Drivers/USB/Core/AVR8/../AVR8/Endpoint_AVR8.h **** 
 504:../../tmk_core/protocol/lufa/LUFA-git/LUFA/Drivers/USB/Core/AVR8/../AVR8/Endpoint_AVR8.h **** 			/** Determines if the currently selected endpoint is stalled, \c false otherwise.
 505:../../tmk_core/protocol/lufa/LUFA-git/LUFA/Drivers/USB/Core/AVR8/../AVR8/Endpoint_AVR8.h **** 			 *
 506:../../tmk_core/protocol/lufa/LUFA-git/LUFA/Drivers/USB/Core/AVR8/../AVR8/Endpoint_AVR8.h **** 			 *  \ingroup Group_EndpointPacketManagement_AVR8
 507:../../tmk_core/protocol/lufa/LUFA-git/LUFA/Drivers/USB/Core/AVR8/../AVR8/Endpoint_AVR8.h **** 			 *
 508:../../tmk_core/protocol/lufa/LUFA-git/LUFA/Drivers/USB/Core/AVR8/../AVR8/Endpoint_AVR8.h **** 			 *  \return Boolean \c true if the currently selected endpoint is stalled, \c false otherwise.
 509:../../tmk_core/protocol/lufa/LUFA-git/LUFA/Drivers/USB/Core/AVR8/../AVR8/Endpoint_AVR8.h **** 			 */
 510:../../tmk_core/protocol/lufa/LUFA-git/LUFA/Drivers/USB/Core/AVR8/../AVR8/Endpoint_AVR8.h **** 			static inline bool Endpoint_IsStalled(void) ATTR_WARN_UNUSED_RESULT ATTR_ALWAYS_INLINE;
 511:../../tmk_core/protocol/lufa/LUFA-git/LUFA/Drivers/USB/Core/AVR8/../AVR8/Endpoint_AVR8.h **** 			static inline bool Endpoint_IsStalled(void)
 512:../../tmk_core/protocol/lufa/LUFA-git/LUFA/Drivers/USB/Core/AVR8/../AVR8/Endpoint_AVR8.h **** 			{
 513:../../tmk_core/protocol/lufa/LUFA-git/LUFA/Drivers/USB/Core/AVR8/../AVR8/Endpoint_AVR8.h **** 				return ((UECONX & (1 << STALLRQ)) ? true : false);
 514:../../tmk_core/protocol/lufa/LUFA-git/LUFA/Drivers/USB/Core/AVR8/../AVR8/Endpoint_AVR8.h **** 			}
 515:../../tmk_core/protocol/lufa/LUFA-git/LUFA/Drivers/USB/Core/AVR8/../AVR8/Endpoint_AVR8.h **** 
 516:../../tmk_core/protocol/lufa/LUFA-git/LUFA/Drivers/USB/Core/AVR8/../AVR8/Endpoint_AVR8.h **** 			/** Resets the data toggle of the currently selected endpoint. */
 517:../../tmk_core/protocol/lufa/LUFA-git/LUFA/Drivers/USB/Core/AVR8/../AVR8/Endpoint_AVR8.h **** 			static inline void Endpoint_ResetDataToggle(void) ATTR_ALWAYS_INLINE;
 518:../../tmk_core/protocol/lufa/LUFA-git/LUFA/Drivers/USB/Core/AVR8/../AVR8/Endpoint_AVR8.h **** 			static inline void Endpoint_ResetDataToggle(void)
 519:../../tmk_core/protocol/lufa/LUFA-git/LUFA/Drivers/USB/Core/AVR8/../AVR8/Endpoint_AVR8.h **** 			{
 520:../../tmk_core/protocol/lufa/LUFA-git/LUFA/Drivers/USB/Core/AVR8/../AVR8/Endpoint_AVR8.h **** 				UECONX |= (1 << RSTDT);
 521:../../tmk_core/protocol/lufa/LUFA-git/LUFA/Drivers/USB/Core/AVR8/../AVR8/Endpoint_AVR8.h **** 			}
 522:../../tmk_core/protocol/lufa/LUFA-git/LUFA/Drivers/USB/Core/AVR8/../AVR8/Endpoint_AVR8.h **** 
 523:../../tmk_core/protocol/lufa/LUFA-git/LUFA/Drivers/USB/Core/AVR8/../AVR8/Endpoint_AVR8.h **** 			/** Sets the direction of the currently selected endpoint.
 524:../../tmk_core/protocol/lufa/LUFA-git/LUFA/Drivers/USB/Core/AVR8/../AVR8/Endpoint_AVR8.h **** 			 *
 525:../../tmk_core/protocol/lufa/LUFA-git/LUFA/Drivers/USB/Core/AVR8/../AVR8/Endpoint_AVR8.h **** 			 *  \param[in] DirectionMask  New endpoint direction, as a \c ENDPOINT_DIR_* mask.
 526:../../tmk_core/protocol/lufa/LUFA-git/LUFA/Drivers/USB/Core/AVR8/../AVR8/Endpoint_AVR8.h **** 			 */
 527:../../tmk_core/protocol/lufa/LUFA-git/LUFA/Drivers/USB/Core/AVR8/../AVR8/Endpoint_AVR8.h **** 			static inline void Endpoint_SetEndpointDirection(const uint8_t DirectionMask) ATTR_ALWAYS_INLINE
 528:../../tmk_core/protocol/lufa/LUFA-git/LUFA/Drivers/USB/Core/AVR8/../AVR8/Endpoint_AVR8.h **** 			static inline void Endpoint_SetEndpointDirection(const uint8_t DirectionMask)
 529:../../tmk_core/protocol/lufa/LUFA-git/LUFA/Drivers/USB/Core/AVR8/../AVR8/Endpoint_AVR8.h **** 			{
 530:../../tmk_core/protocol/lufa/LUFA-git/LUFA/Drivers/USB/Core/AVR8/../AVR8/Endpoint_AVR8.h **** 				UECFG0X = ((UECFG0X & ~(1 << EPDIR)) | (DirectionMask ? (1 << EPDIR) : 0));
 531:../../tmk_core/protocol/lufa/LUFA-git/LUFA/Drivers/USB/Core/AVR8/../AVR8/Endpoint_AVR8.h **** 			}
 532:../../tmk_core/protocol/lufa/LUFA-git/LUFA/Drivers/USB/Core/AVR8/../AVR8/Endpoint_AVR8.h **** 
 533:../../tmk_core/protocol/lufa/LUFA-git/LUFA/Drivers/USB/Core/AVR8/../AVR8/Endpoint_AVR8.h **** 			/** Reads one byte from the currently selected endpoint's bank, for OUT direction endpoints.
 534:../../tmk_core/protocol/lufa/LUFA-git/LUFA/Drivers/USB/Core/AVR8/../AVR8/Endpoint_AVR8.h **** 			 *
 535:../../tmk_core/protocol/lufa/LUFA-git/LUFA/Drivers/USB/Core/AVR8/../AVR8/Endpoint_AVR8.h **** 			 *  \ingroup Group_EndpointPrimitiveRW_AVR8
 536:../../tmk_core/protocol/lufa/LUFA-git/LUFA/Drivers/USB/Core/AVR8/../AVR8/Endpoint_AVR8.h **** 			 *
 537:../../tmk_core/protocol/lufa/LUFA-git/LUFA/Drivers/USB/Core/AVR8/../AVR8/Endpoint_AVR8.h **** 			 *  \return Next byte in the currently selected endpoint's FIFO buffer.
 538:../../tmk_core/protocol/lufa/LUFA-git/LUFA/Drivers/USB/Core/AVR8/../AVR8/Endpoint_AVR8.h **** 			 */
 539:../../tmk_core/protocol/lufa/LUFA-git/LUFA/Drivers/USB/Core/AVR8/../AVR8/Endpoint_AVR8.h **** 			static inline uint8_t Endpoint_Read_8(void) ATTR_WARN_UNUSED_RESULT ATTR_ALWAYS_INLINE;
 540:../../tmk_core/protocol/lufa/LUFA-git/LUFA/Drivers/USB/Core/AVR8/../AVR8/Endpoint_AVR8.h **** 			static inline uint8_t Endpoint_Read_8(void)
 541:../../tmk_core/protocol/lufa/LUFA-git/LUFA/Drivers/USB/Core/AVR8/../AVR8/Endpoint_AVR8.h **** 			{
 542:../../tmk_core/protocol/lufa/LUFA-git/LUFA/Drivers/USB/Core/AVR8/../AVR8/Endpoint_AVR8.h **** 				return UEDATX;
 543:../../tmk_core/protocol/lufa/LUFA-git/LUFA/Drivers/USB/Core/AVR8/../AVR8/Endpoint_AVR8.h **** 			}
 544:../../tmk_core/protocol/lufa/LUFA-git/LUFA/Drivers/USB/Core/AVR8/../AVR8/Endpoint_AVR8.h **** 
 545:../../tmk_core/protocol/lufa/LUFA-git/LUFA/Drivers/USB/Core/AVR8/../AVR8/Endpoint_AVR8.h **** 			/** Writes one byte to the currently selected endpoint's bank, for IN direction endpoints.
 546:../../tmk_core/protocol/lufa/LUFA-git/LUFA/Drivers/USB/Core/AVR8/../AVR8/Endpoint_AVR8.h **** 			 *
 547:../../tmk_core/protocol/lufa/LUFA-git/LUFA/Drivers/USB/Core/AVR8/../AVR8/Endpoint_AVR8.h **** 			 *  \ingroup Group_EndpointPrimitiveRW_AVR8
 548:../../tmk_core/protocol/lufa/LUFA-git/LUFA/Drivers/USB/Core/AVR8/../AVR8/Endpoint_AVR8.h **** 			 *
 549:../../tmk_core/protocol/lufa/LUFA-git/LUFA/Drivers/USB/Core/AVR8/../AVR8/Endpoint_AVR8.h **** 			 *  \param[in] Data  Data to write into the the currently selected endpoint's FIFO buffer.
 550:../../tmk_core/protocol/lufa/LUFA-git/LUFA/Drivers/USB/Core/AVR8/../AVR8/Endpoint_AVR8.h **** 			 */
 551:../../tmk_core/protocol/lufa/LUFA-git/LUFA/Drivers/USB/Core/AVR8/../AVR8/Endpoint_AVR8.h **** 			static inline void Endpoint_Write_8(const uint8_t Data) ATTR_ALWAYS_INLINE;
 552:../../tmk_core/protocol/lufa/LUFA-git/LUFA/Drivers/USB/Core/AVR8/../AVR8/Endpoint_AVR8.h **** 			static inline void Endpoint_Write_8(const uint8_t Data)
 553:../../tmk_core/protocol/lufa/LUFA-git/LUFA/Drivers/USB/Core/AVR8/../AVR8/Endpoint_AVR8.h **** 			{
 554:../../tmk_core/protocol/lufa/LUFA-git/LUFA/Drivers/USB/Core/AVR8/../AVR8/Endpoint_AVR8.h **** 				UEDATX = Data;
 684               		.loc 2 554 0
 685 0078 3093 F100 		sts 241,r19
 686               	.LVL63:
 687               	.LBE359:
 688               	.LBE358:
 689               	.LBB360:
 690               	.LBB361:
 360:../../tmk_core/protocol/lufa/LUFA-git/LUFA/Drivers/USB/Core/AVR8/../AVR8/Endpoint_AVR8.h **** 			}
 691               		.loc 2 360 0
 692 007c 9091 E800 		lds r25,232
 693               	.LBE361:
 694               	.LBE360:
 141:../../tmk_core/protocol/lufa/lufa.c ****             Endpoint_ClearIN();
 695               		.loc 1 141 0
 696 0080 95FD      		sbrc r25,5
 697 0082 00C0      		rjmp .L77
 698               	.LBB362:
 699               	.LBB363:
 407:../../tmk_core/protocol/lufa/LUFA-git/LUFA/Drivers/USB/Core/AVR8/../AVR8/Endpoint_AVR8.h **** 			}
 700               		.loc 2 407 0
 701 0084 9091 E800 		lds r25,232
 702               	.LBE363:
 703               	.LBE362:
 141:../../tmk_core/protocol/lufa/lufa.c ****             Endpoint_ClearIN();
 704               		.loc 1 141 0
 705 0088 90FF      		sbrs r25,0
 706 008a 00C0      		rjmp .L77
 707               	.LBB364:
 708               	.LBB365:
 456:../../tmk_core/protocol/lufa/LUFA-git/LUFA/Drivers/USB/Core/AVR8/../AVR8/Endpoint_AVR8.h **** 				#else
 709               		.loc 2 456 0
 710 008c 9091 E800 		lds r25,232
 711 0090 9E77      		andi r25,lo8(126)
 712 0092 9093 E800 		sts 232,r25
 713 0096 00C0      		rjmp .L77
 714               	.LVL64:
 715               	.L76:
 716               	.LDL1:
 717               	.LBE365:
 718               	.LBE364:
 719               	.LBB366:
 720               	.LBB367:
 270:../../tmk_core/protocol/lufa/LUFA-git/LUFA/Drivers/USB/Core/AVR8/../AVR8/Endpoint_AVR8.h **** 				#endif
 721               		.loc 2 270 0
 722 0098 8F70      		andi r24,lo8(15)
 723               	.LVL65:
 724 009a 8093 E900 		sts 233,r24
 725               	.L74:
 726               	.LVL66:
 727               	.LBE367:
 728               	.LBE366:
 729               	.LBB368:
 730               	.LBB369:
 731               	.LBB370:
 732               	.LBB371:
  36:../../tmk_core/common/ringbuf.h ****     return  data;
  37:../../tmk_core/common/ringbuf.h **** }
  38:../../tmk_core/common/ringbuf.h **** static inline bool ringbuf_put(ringbuf_t *buf, uint8_t data)
  39:../../tmk_core/common/ringbuf.h **** {
  40:../../tmk_core/common/ringbuf.h ****     if (ringbuf_is_full(buf)) {
  41:../../tmk_core/common/ringbuf.h ****         return false;
  42:../../tmk_core/common/ringbuf.h ****     }
  43:../../tmk_core/common/ringbuf.h ****     buf->buffer[buf->head] = data;
  44:../../tmk_core/common/ringbuf.h ****     buf->head++;
  45:../../tmk_core/common/ringbuf.h ****     buf->head &= buf->size_mask;
  46:../../tmk_core/common/ringbuf.h ****     return true;
  47:../../tmk_core/common/ringbuf.h **** }
  48:../../tmk_core/common/ringbuf.h **** // this overrides data in buffer when it is full
  49:../../tmk_core/common/ringbuf.h **** static inline void ringbuf_write(ringbuf_t *buf, uint8_t data)
  50:../../tmk_core/common/ringbuf.h **** {
  51:../../tmk_core/common/ringbuf.h ****     buf->buffer[buf->head] = data;
  52:../../tmk_core/common/ringbuf.h ****     buf->head++;
  53:../../tmk_core/common/ringbuf.h ****     buf->head &= buf->size_mask;
  54:../../tmk_core/common/ringbuf.h ****     // eat tail: override data yet to be consumed
  55:../../tmk_core/common/ringbuf.h ****     if (buf->head == buf->tail) {
  56:../../tmk_core/common/ringbuf.h ****         buf->tail++;
  57:../../tmk_core/common/ringbuf.h ****         buf->tail &= buf->size_mask;
  58:../../tmk_core/common/ringbuf.h ****     }
  59:../../tmk_core/common/ringbuf.h **** }
  60:../../tmk_core/common/ringbuf.h **** static inline bool ringbuf_is_empty(ringbuf_t *buf)
  61:../../tmk_core/common/ringbuf.h **** {
  62:../../tmk_core/common/ringbuf.h ****     return (buf->head == buf->tail);
  63:../../tmk_core/common/ringbuf.h **** }
  64:../../tmk_core/common/ringbuf.h **** static inline bool ringbuf_is_full(ringbuf_t *buf)
  65:../../tmk_core/common/ringbuf.h **** {
  66:../../tmk_core/common/ringbuf.h ****     return (((buf->head + 1) & buf->size_mask) == buf->tail);
 733               		.loc 4 66 0
 734 009e 8091 0000 		lds r24,sendbuf+2
 735               	.LVL67:
 736               	.LBE371:
 737               	.LBE370:
  40:../../tmk_core/common/ringbuf.h ****         return false;
 738               		.loc 4 40 0
 739 00a2 90E0      		ldi r25,0
 740 00a4 AC01      		movw r20,r24
 741 00a6 4F5F      		subi r20,-1
 742 00a8 5F4F      		sbci r21,-1
 743 00aa 3091 0000 		lds r19,sendbuf+4
 744 00ae 232F      		mov r18,r19
 745 00b0 30E0      		ldi r19,0
 746 00b2 2423      		and r18,r20
 747 00b4 3523      		and r19,r21
 748 00b6 4091 0000 		lds r20,sendbuf+3
 749 00ba 50E0      		ldi r21,0
 750 00bc 2417      		cp r18,r20
 751 00be 3507      		cpc r19,r21
 752 00c0 01F0      		breq .L85
  43:../../tmk_core/common/ringbuf.h ****     buf->head++;
 753               		.loc 4 43 0
 754 00c2 2091 0000 		lds r18,sendbuf
 755 00c6 3091 0000 		lds r19,sendbuf+1
 756 00ca F901      		movw r30,r18
 757 00cc E80F      		add r30,r24
 758 00ce F91F      		adc r31,r25
 759 00d0 C083      		st Z,r28
  45:../../tmk_core/common/ringbuf.h ****     return true;
 760               		.loc 4 45 0
 761 00d2 8091 0000 		lds r24,sendbuf+2
 762 00d6 8F5F      		subi r24,lo8(-(1))
 763 00d8 9091 0000 		lds r25,sendbuf+4
 764 00dc 8923      		and r24,r25
 765 00de 8093 0000 		sts sendbuf+2,r24
 766 00e2 00C0      		rjmp .L81
 767               	.L85:
 768               	.LBE369:
 769               	.LBE368:
 770               	.LBE343:
 771               	.LBE342:
 581:../../tmk_core/protocol/lufa/lufa.c ****     #ifdef LUFA_DEBUG_SUART
 582:../../tmk_core/protocol/lufa/lufa.c ****     xmit(c);
 583:../../tmk_core/protocol/lufa/lufa.c ****     #endif
 584:../../tmk_core/protocol/lufa/lufa.c **** 
 585:../../tmk_core/protocol/lufa/lufa.c ****     bool r = console_putc(c);
 586:../../tmk_core/protocol/lufa/lufa.c ****     return (r ? 0 : -1);
 772               		.loc 1 586 0
 773 00e4 8FEF      		ldi r24,lo8(-1)
 774 00e6 00C0      		rjmp .L95
 775               	.LVL68:
 776               	.L79:
 777               	.LBB379:
 778               	.LBB378:
 779               	.LBB372:
 780               	.LBB373:
 360:../../tmk_core/protocol/lufa/LUFA-git/LUFA/Drivers/USB/Core/AVR8/../AVR8/Endpoint_AVR8.h **** 			}
 781               		.loc 2 360 0
 782 00e8 9091 E800 		lds r25,232
 783               	.LBE373:
 784               	.LBE372:
 147:../../tmk_core/protocol/lufa/lufa.c ****         Endpoint_Write_8(c);
 785               		.loc 1 147 0
 786 00ec 95FF      		sbrs r25,5
 787 00ee 00C0      		rjmp .L76
 788               	.LVL69:
 789               	.LBB374:
 790               	.LBB375:
 791               		.loc 2 554 0
 792 00f0 C093 F100 		sts 241,r28
 793               	.LVL70:
 794               	.LBE375:
 795               	.LBE374:
 796               	.LBB376:
 797               	.LBB377:
 270:../../tmk_core/protocol/lufa/LUFA-git/LUFA/Drivers/USB/Core/AVR8/../AVR8/Endpoint_AVR8.h **** 				#endif
 798               		.loc 2 270 0
 799 00f4 8F70      		andi r24,lo8(15)
 800               	.LVL71:
 801 00f6 8093 E900 		sts 233,r24
 802               	.LVL72:
 803               	.L81:
 804               	.LBE377:
 805               	.LBE376:
 806               	.LBE378:
 807               	.LBE379:
 808               		.loc 1 586 0
 809 00fa 80E0      		ldi r24,0
 810               	.L95:
 811               	/* epilogue start */
 587:../../tmk_core/protocol/lufa/lufa.c **** }
 812               		.loc 1 587 0
 813 00fc CF91      		pop r28
 814               	.LVL73:
 815 00fe 0895      		ret
 816               		.cfi_endproc
 817               	.LFE132:
 819               		.section	.text.EVENT_USB_Device_Connect,"ax",@progbits
 820               	.global	EVENT_USB_Device_Connect
 822               	EVENT_USB_Device_Connect:
 823               	.LFB119:
 220:../../tmk_core/protocol/lufa/lufa.c ****     print("[C]");
 824               		.loc 1 220 0
 825               		.cfi_startproc
 826               	/* prologue: function */
 827               	/* frame size = 0 */
 828               	/* stack size = 0 */
 829               	.L__stack_usage = 0
 221:../../tmk_core/protocol/lufa/lufa.c ****     /* For battery powered device */
 830               		.loc 1 221 0
 831 0000 80E0      		ldi r24,lo8(__c.5013)
 832 0002 90E0      		ldi r25,hi8(__c.5013)
 833 0004 0E94 0000 		call xputs
 834               	.LVL74:
 223:../../tmk_core/protocol/lufa/lufa.c ****         USB_Disable();
 835               		.loc 1 223 0
 836 0008 8091 0000 		lds r24,USB_IsInitialized
 837 000c 8111      		cpse r24,__zero_reg__
 838 000e 00C0      		rjmp .L96
 224:../../tmk_core/protocol/lufa/lufa.c ****         USB_Init();
 839               		.loc 1 224 0
 840 0010 0E94 0000 		call USB_Disable
 841               	.LVL75:
 225:../../tmk_core/protocol/lufa/lufa.c ****         USB_Device_EnableSOFEvents();
 842               		.loc 1 225 0
 843 0014 0E94 0000 		call USB_Init
 844               	.LVL76:
 845               	.LBB380:
 846               	.LBB381:
 847               	.LBB382:
 848               		.file 5 "../../tmk_core/protocol/lufa/LUFA-git/LUFA/Drivers/USB/Core/AVR8/../AVR8/USBInterrupt_AVR
   1:../../tmk_core/protocol/lufa/LUFA-git/LUFA/Drivers/USB/Core/AVR8/../AVR8/USBInterrupt_AVR8.h **** /*
   2:../../tmk_core/protocol/lufa/LUFA-git/LUFA/Drivers/USB/Core/AVR8/../AVR8/USBInterrupt_AVR8.h ****              LUFA Library
   3:../../tmk_core/protocol/lufa/LUFA-git/LUFA/Drivers/USB/Core/AVR8/../AVR8/USBInterrupt_AVR8.h ****      Copyright (C) Dean Camera, 2014.
   4:../../tmk_core/protocol/lufa/LUFA-git/LUFA/Drivers/USB/Core/AVR8/../AVR8/USBInterrupt_AVR8.h **** 
   5:../../tmk_core/protocol/lufa/LUFA-git/LUFA/Drivers/USB/Core/AVR8/../AVR8/USBInterrupt_AVR8.h ****   dean [at] fourwalledcubicle [dot] com
   6:../../tmk_core/protocol/lufa/LUFA-git/LUFA/Drivers/USB/Core/AVR8/../AVR8/USBInterrupt_AVR8.h ****            www.lufa-lib.org
   7:../../tmk_core/protocol/lufa/LUFA-git/LUFA/Drivers/USB/Core/AVR8/../AVR8/USBInterrupt_AVR8.h **** */
   8:../../tmk_core/protocol/lufa/LUFA-git/LUFA/Drivers/USB/Core/AVR8/../AVR8/USBInterrupt_AVR8.h **** 
   9:../../tmk_core/protocol/lufa/LUFA-git/LUFA/Drivers/USB/Core/AVR8/../AVR8/USBInterrupt_AVR8.h **** /*
  10:../../tmk_core/protocol/lufa/LUFA-git/LUFA/Drivers/USB/Core/AVR8/../AVR8/USBInterrupt_AVR8.h ****   Copyright 2014  Dean Camera (dean [at] fourwalledcubicle [dot] com)
  11:../../tmk_core/protocol/lufa/LUFA-git/LUFA/Drivers/USB/Core/AVR8/../AVR8/USBInterrupt_AVR8.h **** 
  12:../../tmk_core/protocol/lufa/LUFA-git/LUFA/Drivers/USB/Core/AVR8/../AVR8/USBInterrupt_AVR8.h ****   Permission to use, copy, modify, distribute, and sell this
  13:../../tmk_core/protocol/lufa/LUFA-git/LUFA/Drivers/USB/Core/AVR8/../AVR8/USBInterrupt_AVR8.h ****   software and its documentation for any purpose is hereby granted
  14:../../tmk_core/protocol/lufa/LUFA-git/LUFA/Drivers/USB/Core/AVR8/../AVR8/USBInterrupt_AVR8.h ****   without fee, provided that the above copyright notice appear in
  15:../../tmk_core/protocol/lufa/LUFA-git/LUFA/Drivers/USB/Core/AVR8/../AVR8/USBInterrupt_AVR8.h ****   all copies and that both that the copyright notice and this
  16:../../tmk_core/protocol/lufa/LUFA-git/LUFA/Drivers/USB/Core/AVR8/../AVR8/USBInterrupt_AVR8.h ****   permission notice and warranty disclaimer appear in supporting
  17:../../tmk_core/protocol/lufa/LUFA-git/LUFA/Drivers/USB/Core/AVR8/../AVR8/USBInterrupt_AVR8.h ****   documentation, and that the name of the author not be used in
  18:../../tmk_core/protocol/lufa/LUFA-git/LUFA/Drivers/USB/Core/AVR8/../AVR8/USBInterrupt_AVR8.h ****   advertising or publicity pertaining to distribution of the
  19:../../tmk_core/protocol/lufa/LUFA-git/LUFA/Drivers/USB/Core/AVR8/../AVR8/USBInterrupt_AVR8.h ****   software without specific, written prior permission.
  20:../../tmk_core/protocol/lufa/LUFA-git/LUFA/Drivers/USB/Core/AVR8/../AVR8/USBInterrupt_AVR8.h **** 
  21:../../tmk_core/protocol/lufa/LUFA-git/LUFA/Drivers/USB/Core/AVR8/../AVR8/USBInterrupt_AVR8.h ****   The author disclaims all warranties with regard to this
  22:../../tmk_core/protocol/lufa/LUFA-git/LUFA/Drivers/USB/Core/AVR8/../AVR8/USBInterrupt_AVR8.h ****   software, including all implied warranties of merchantability
  23:../../tmk_core/protocol/lufa/LUFA-git/LUFA/Drivers/USB/Core/AVR8/../AVR8/USBInterrupt_AVR8.h ****   and fitness.  In no event shall the author be liable for any
  24:../../tmk_core/protocol/lufa/LUFA-git/LUFA/Drivers/USB/Core/AVR8/../AVR8/USBInterrupt_AVR8.h ****   special, indirect or consequential damages or any damages
  25:../../tmk_core/protocol/lufa/LUFA-git/LUFA/Drivers/USB/Core/AVR8/../AVR8/USBInterrupt_AVR8.h ****   whatsoever resulting from loss of use, data or profits, whether
  26:../../tmk_core/protocol/lufa/LUFA-git/LUFA/Drivers/USB/Core/AVR8/../AVR8/USBInterrupt_AVR8.h ****   in an action of contract, negligence or other tortious action,
  27:../../tmk_core/protocol/lufa/LUFA-git/LUFA/Drivers/USB/Core/AVR8/../AVR8/USBInterrupt_AVR8.h ****   arising out of or in connection with the use or performance of
  28:../../tmk_core/protocol/lufa/LUFA-git/LUFA/Drivers/USB/Core/AVR8/../AVR8/USBInterrupt_AVR8.h ****   this software.
  29:../../tmk_core/protocol/lufa/LUFA-git/LUFA/Drivers/USB/Core/AVR8/../AVR8/USBInterrupt_AVR8.h **** */
  30:../../tmk_core/protocol/lufa/LUFA-git/LUFA/Drivers/USB/Core/AVR8/../AVR8/USBInterrupt_AVR8.h **** 
  31:../../tmk_core/protocol/lufa/LUFA-git/LUFA/Drivers/USB/Core/AVR8/../AVR8/USBInterrupt_AVR8.h **** /** \file
  32:../../tmk_core/protocol/lufa/LUFA-git/LUFA/Drivers/USB/Core/AVR8/../AVR8/USBInterrupt_AVR8.h ****  *  \brief USB Controller Interrupt definitions for the AVR8 microcontrollers.
  33:../../tmk_core/protocol/lufa/LUFA-git/LUFA/Drivers/USB/Core/AVR8/../AVR8/USBInterrupt_AVR8.h ****  *
  34:../../tmk_core/protocol/lufa/LUFA-git/LUFA/Drivers/USB/Core/AVR8/../AVR8/USBInterrupt_AVR8.h ****  *  This file contains definitions required for the correct handling of low level USB service routi
  35:../../tmk_core/protocol/lufa/LUFA-git/LUFA/Drivers/USB/Core/AVR8/../AVR8/USBInterrupt_AVR8.h ****  *  from the USB controller.
  36:../../tmk_core/protocol/lufa/LUFA-git/LUFA/Drivers/USB/Core/AVR8/../AVR8/USBInterrupt_AVR8.h ****  *
  37:../../tmk_core/protocol/lufa/LUFA-git/LUFA/Drivers/USB/Core/AVR8/../AVR8/USBInterrupt_AVR8.h ****  *  \note This file should not be included directly. It is automatically included as needed by the 
  38:../../tmk_core/protocol/lufa/LUFA-git/LUFA/Drivers/USB/Core/AVR8/../AVR8/USBInterrupt_AVR8.h ****  *        dispatch header located in LUFA/Drivers/USB/USB.h.
  39:../../tmk_core/protocol/lufa/LUFA-git/LUFA/Drivers/USB/Core/AVR8/../AVR8/USBInterrupt_AVR8.h ****  */
  40:../../tmk_core/protocol/lufa/LUFA-git/LUFA/Drivers/USB/Core/AVR8/../AVR8/USBInterrupt_AVR8.h **** 
  41:../../tmk_core/protocol/lufa/LUFA-git/LUFA/Drivers/USB/Core/AVR8/../AVR8/USBInterrupt_AVR8.h **** #ifndef __USBINTERRUPT_AVR8_H__
  42:../../tmk_core/protocol/lufa/LUFA-git/LUFA/Drivers/USB/Core/AVR8/../AVR8/USBInterrupt_AVR8.h **** #define __USBINTERRUPT_AVR8_H__
  43:../../tmk_core/protocol/lufa/LUFA-git/LUFA/Drivers/USB/Core/AVR8/../AVR8/USBInterrupt_AVR8.h **** 
  44:../../tmk_core/protocol/lufa/LUFA-git/LUFA/Drivers/USB/Core/AVR8/../AVR8/USBInterrupt_AVR8.h **** 	/* Includes: */
  45:../../tmk_core/protocol/lufa/LUFA-git/LUFA/Drivers/USB/Core/AVR8/../AVR8/USBInterrupt_AVR8.h **** 		#include "../../../../Common/Common.h"
  46:../../tmk_core/protocol/lufa/LUFA-git/LUFA/Drivers/USB/Core/AVR8/../AVR8/USBInterrupt_AVR8.h **** 
  47:../../tmk_core/protocol/lufa/LUFA-git/LUFA/Drivers/USB/Core/AVR8/../AVR8/USBInterrupt_AVR8.h **** 	/* Enable C linkage for C++ Compilers: */
  48:../../tmk_core/protocol/lufa/LUFA-git/LUFA/Drivers/USB/Core/AVR8/../AVR8/USBInterrupt_AVR8.h **** 		#if defined(__cplusplus)
  49:../../tmk_core/protocol/lufa/LUFA-git/LUFA/Drivers/USB/Core/AVR8/../AVR8/USBInterrupt_AVR8.h **** 			extern "C" {
  50:../../tmk_core/protocol/lufa/LUFA-git/LUFA/Drivers/USB/Core/AVR8/../AVR8/USBInterrupt_AVR8.h **** 		#endif
  51:../../tmk_core/protocol/lufa/LUFA-git/LUFA/Drivers/USB/Core/AVR8/../AVR8/USBInterrupt_AVR8.h **** 
  52:../../tmk_core/protocol/lufa/LUFA-git/LUFA/Drivers/USB/Core/AVR8/../AVR8/USBInterrupt_AVR8.h **** 	/* Preprocessor Checks: */
  53:../../tmk_core/protocol/lufa/LUFA-git/LUFA/Drivers/USB/Core/AVR8/../AVR8/USBInterrupt_AVR8.h **** 		#if !defined(__INCLUDE_FROM_USB_DRIVER)
  54:../../tmk_core/protocol/lufa/LUFA-git/LUFA/Drivers/USB/Core/AVR8/../AVR8/USBInterrupt_AVR8.h **** 			#error Do not include this file directly. Include LUFA/Drivers/USB/USB.h instead.
  55:../../tmk_core/protocol/lufa/LUFA-git/LUFA/Drivers/USB/Core/AVR8/../AVR8/USBInterrupt_AVR8.h **** 		#endif
  56:../../tmk_core/protocol/lufa/LUFA-git/LUFA/Drivers/USB/Core/AVR8/../AVR8/USBInterrupt_AVR8.h **** 
  57:../../tmk_core/protocol/lufa/LUFA-git/LUFA/Drivers/USB/Core/AVR8/../AVR8/USBInterrupt_AVR8.h **** 	/* Private Interface - For use in library only: */
  58:../../tmk_core/protocol/lufa/LUFA-git/LUFA/Drivers/USB/Core/AVR8/../AVR8/USBInterrupt_AVR8.h **** 	#if !defined(__DOXYGEN__)
  59:../../tmk_core/protocol/lufa/LUFA-git/LUFA/Drivers/USB/Core/AVR8/../AVR8/USBInterrupt_AVR8.h **** 		/* Enums: */
  60:../../tmk_core/protocol/lufa/LUFA-git/LUFA/Drivers/USB/Core/AVR8/../AVR8/USBInterrupt_AVR8.h **** 			enum USB_Interrupts_t
  61:../../tmk_core/protocol/lufa/LUFA-git/LUFA/Drivers/USB/Core/AVR8/../AVR8/USBInterrupt_AVR8.h **** 			{
  62:../../tmk_core/protocol/lufa/LUFA-git/LUFA/Drivers/USB/Core/AVR8/../AVR8/USBInterrupt_AVR8.h **** 				#if (defined(USB_SERIES_4_AVR) || defined(USB_SERIES_6_AVR) || defined(USB_SERIES_7_AVR) || def
  63:../../tmk_core/protocol/lufa/LUFA-git/LUFA/Drivers/USB/Core/AVR8/../AVR8/USBInterrupt_AVR8.h **** 				USB_INT_VBUSTI  = 0,
  64:../../tmk_core/protocol/lufa/LUFA-git/LUFA/Drivers/USB/Core/AVR8/../AVR8/USBInterrupt_AVR8.h **** 				#endif
  65:../../tmk_core/protocol/lufa/LUFA-git/LUFA/Drivers/USB/Core/AVR8/../AVR8/USBInterrupt_AVR8.h **** 				#if (defined(USB_CAN_BE_BOTH) || defined(__DOXYGEN__))
  66:../../tmk_core/protocol/lufa/LUFA-git/LUFA/Drivers/USB/Core/AVR8/../AVR8/USBInterrupt_AVR8.h **** 				USB_INT_IDTI    = 1,
  67:../../tmk_core/protocol/lufa/LUFA-git/LUFA/Drivers/USB/Core/AVR8/../AVR8/USBInterrupt_AVR8.h **** 				#endif
  68:../../tmk_core/protocol/lufa/LUFA-git/LUFA/Drivers/USB/Core/AVR8/../AVR8/USBInterrupt_AVR8.h **** 				#if (defined(USB_CAN_BE_DEVICE) || defined(__DOXYGEN__))
  69:../../tmk_core/protocol/lufa/LUFA-git/LUFA/Drivers/USB/Core/AVR8/../AVR8/USBInterrupt_AVR8.h **** 				USB_INT_WAKEUPI = 2,
  70:../../tmk_core/protocol/lufa/LUFA-git/LUFA/Drivers/USB/Core/AVR8/../AVR8/USBInterrupt_AVR8.h **** 				USB_INT_SUSPI   = 3,
  71:../../tmk_core/protocol/lufa/LUFA-git/LUFA/Drivers/USB/Core/AVR8/../AVR8/USBInterrupt_AVR8.h **** 				USB_INT_EORSTI  = 4,
  72:../../tmk_core/protocol/lufa/LUFA-git/LUFA/Drivers/USB/Core/AVR8/../AVR8/USBInterrupt_AVR8.h **** 				USB_INT_SOFI    = 5,
  73:../../tmk_core/protocol/lufa/LUFA-git/LUFA/Drivers/USB/Core/AVR8/../AVR8/USBInterrupt_AVR8.h **** 				USB_INT_RXSTPI  = 6,
  74:../../tmk_core/protocol/lufa/LUFA-git/LUFA/Drivers/USB/Core/AVR8/../AVR8/USBInterrupt_AVR8.h **** 				#endif
  75:../../tmk_core/protocol/lufa/LUFA-git/LUFA/Drivers/USB/Core/AVR8/../AVR8/USBInterrupt_AVR8.h **** 				#if (defined(USB_CAN_BE_HOST) || defined(__DOXYGEN__))
  76:../../tmk_core/protocol/lufa/LUFA-git/LUFA/Drivers/USB/Core/AVR8/../AVR8/USBInterrupt_AVR8.h **** 				USB_INT_HSOFI   = 7,
  77:../../tmk_core/protocol/lufa/LUFA-git/LUFA/Drivers/USB/Core/AVR8/../AVR8/USBInterrupt_AVR8.h **** 				USB_INT_DCONNI  = 8,
  78:../../tmk_core/protocol/lufa/LUFA-git/LUFA/Drivers/USB/Core/AVR8/../AVR8/USBInterrupt_AVR8.h **** 				USB_INT_DDISCI  = 9,
  79:../../tmk_core/protocol/lufa/LUFA-git/LUFA/Drivers/USB/Core/AVR8/../AVR8/USBInterrupt_AVR8.h **** 				USB_INT_RSTI    = 10,
  80:../../tmk_core/protocol/lufa/LUFA-git/LUFA/Drivers/USB/Core/AVR8/../AVR8/USBInterrupt_AVR8.h **** 				USB_INT_BCERRI  = 11,
  81:../../tmk_core/protocol/lufa/LUFA-git/LUFA/Drivers/USB/Core/AVR8/../AVR8/USBInterrupt_AVR8.h **** 				USB_INT_VBERRI  = 12,
  82:../../tmk_core/protocol/lufa/LUFA-git/LUFA/Drivers/USB/Core/AVR8/../AVR8/USBInterrupt_AVR8.h **** 				USB_INT_SRPI    = 13,
  83:../../tmk_core/protocol/lufa/LUFA-git/LUFA/Drivers/USB/Core/AVR8/../AVR8/USBInterrupt_AVR8.h **** 				#endif
  84:../../tmk_core/protocol/lufa/LUFA-git/LUFA/Drivers/USB/Core/AVR8/../AVR8/USBInterrupt_AVR8.h **** 			};
  85:../../tmk_core/protocol/lufa/LUFA-git/LUFA/Drivers/USB/Core/AVR8/../AVR8/USBInterrupt_AVR8.h **** 
  86:../../tmk_core/protocol/lufa/LUFA-git/LUFA/Drivers/USB/Core/AVR8/../AVR8/USBInterrupt_AVR8.h **** 		/* Inline Functions: */
  87:../../tmk_core/protocol/lufa/LUFA-git/LUFA/Drivers/USB/Core/AVR8/../AVR8/USBInterrupt_AVR8.h **** 			static inline void USB_INT_Enable(const uint8_t Interrupt) ATTR_ALWAYS_INLINE;
  88:../../tmk_core/protocol/lufa/LUFA-git/LUFA/Drivers/USB/Core/AVR8/../AVR8/USBInterrupt_AVR8.h **** 			static inline void USB_INT_Enable(const uint8_t Interrupt)
  89:../../tmk_core/protocol/lufa/LUFA-git/LUFA/Drivers/USB/Core/AVR8/../AVR8/USBInterrupt_AVR8.h **** 			{
  90:../../tmk_core/protocol/lufa/LUFA-git/LUFA/Drivers/USB/Core/AVR8/../AVR8/USBInterrupt_AVR8.h **** 				switch (Interrupt)
  91:../../tmk_core/protocol/lufa/LUFA-git/LUFA/Drivers/USB/Core/AVR8/../AVR8/USBInterrupt_AVR8.h **** 				{
  92:../../tmk_core/protocol/lufa/LUFA-git/LUFA/Drivers/USB/Core/AVR8/../AVR8/USBInterrupt_AVR8.h **** 					#if (defined(USB_SERIES_4_AVR) || defined(USB_SERIES_6_AVR) || defined(USB_SERIES_7_AVR))
  93:../../tmk_core/protocol/lufa/LUFA-git/LUFA/Drivers/USB/Core/AVR8/../AVR8/USBInterrupt_AVR8.h **** 					case USB_INT_VBUSTI:
  94:../../tmk_core/protocol/lufa/LUFA-git/LUFA/Drivers/USB/Core/AVR8/../AVR8/USBInterrupt_AVR8.h **** 						USBCON |= (1 << VBUSTE);
  95:../../tmk_core/protocol/lufa/LUFA-git/LUFA/Drivers/USB/Core/AVR8/../AVR8/USBInterrupt_AVR8.h **** 						break;
  96:../../tmk_core/protocol/lufa/LUFA-git/LUFA/Drivers/USB/Core/AVR8/../AVR8/USBInterrupt_AVR8.h **** 					#endif
  97:../../tmk_core/protocol/lufa/LUFA-git/LUFA/Drivers/USB/Core/AVR8/../AVR8/USBInterrupt_AVR8.h **** 					#if defined(USB_CAN_BE_BOTH)
  98:../../tmk_core/protocol/lufa/LUFA-git/LUFA/Drivers/USB/Core/AVR8/../AVR8/USBInterrupt_AVR8.h **** 					case USB_INT_IDTI:
  99:../../tmk_core/protocol/lufa/LUFA-git/LUFA/Drivers/USB/Core/AVR8/../AVR8/USBInterrupt_AVR8.h **** 						USBCON |= (1 << IDTE);
 100:../../tmk_core/protocol/lufa/LUFA-git/LUFA/Drivers/USB/Core/AVR8/../AVR8/USBInterrupt_AVR8.h **** 						break;
 101:../../tmk_core/protocol/lufa/LUFA-git/LUFA/Drivers/USB/Core/AVR8/../AVR8/USBInterrupt_AVR8.h **** 					#endif
 102:../../tmk_core/protocol/lufa/LUFA-git/LUFA/Drivers/USB/Core/AVR8/../AVR8/USBInterrupt_AVR8.h **** 					#if defined(USB_CAN_BE_DEVICE)
 103:../../tmk_core/protocol/lufa/LUFA-git/LUFA/Drivers/USB/Core/AVR8/../AVR8/USBInterrupt_AVR8.h **** 					case USB_INT_WAKEUPI:
 104:../../tmk_core/protocol/lufa/LUFA-git/LUFA/Drivers/USB/Core/AVR8/../AVR8/USBInterrupt_AVR8.h **** 						UDIEN  |= (1 << WAKEUPE);
 105:../../tmk_core/protocol/lufa/LUFA-git/LUFA/Drivers/USB/Core/AVR8/../AVR8/USBInterrupt_AVR8.h **** 						break;
 106:../../tmk_core/protocol/lufa/LUFA-git/LUFA/Drivers/USB/Core/AVR8/../AVR8/USBInterrupt_AVR8.h **** 					case USB_INT_SUSPI:
 107:../../tmk_core/protocol/lufa/LUFA-git/LUFA/Drivers/USB/Core/AVR8/../AVR8/USBInterrupt_AVR8.h **** 						UDIEN  |= (1 << SUSPE);
 108:../../tmk_core/protocol/lufa/LUFA-git/LUFA/Drivers/USB/Core/AVR8/../AVR8/USBInterrupt_AVR8.h **** 						break;
 109:../../tmk_core/protocol/lufa/LUFA-git/LUFA/Drivers/USB/Core/AVR8/../AVR8/USBInterrupt_AVR8.h **** 					case USB_INT_EORSTI:
 110:../../tmk_core/protocol/lufa/LUFA-git/LUFA/Drivers/USB/Core/AVR8/../AVR8/USBInterrupt_AVR8.h **** 						UDIEN  |= (1 << EORSTE);
 111:../../tmk_core/protocol/lufa/LUFA-git/LUFA/Drivers/USB/Core/AVR8/../AVR8/USBInterrupt_AVR8.h **** 						break;
 112:../../tmk_core/protocol/lufa/LUFA-git/LUFA/Drivers/USB/Core/AVR8/../AVR8/USBInterrupt_AVR8.h **** 					case USB_INT_SOFI:
 113:../../tmk_core/protocol/lufa/LUFA-git/LUFA/Drivers/USB/Core/AVR8/../AVR8/USBInterrupt_AVR8.h **** 						UDIEN  |= (1 << SOFE);
 849               		.loc 5 113 0
 850 0018 8091 E200 		lds r24,226
 851 001c 8460      		ori r24,lo8(4)
 852 001e 8093 E200 		sts 226,r24
 853               	.LVL77:
 854               	.L96:
 855 0022 0895      		ret
 856               	.LBE382:
 857               	.LBE381:
 858               	.LBE380:
 859               		.cfi_endproc
 860               	.LFE119:
 862               		.section	.text.EVENT_USB_Device_Disconnect,"ax",@progbits
 863               	.global	EVENT_USB_Device_Disconnect
 865               	EVENT_USB_Device_Disconnect:
 866               	.LFB120:
 231:../../tmk_core/protocol/lufa/lufa.c ****     print("[D]");
 867               		.loc 1 231 0
 868               		.cfi_startproc
 869               	/* prologue: function */
 870               	/* frame size = 0 */
 871               	/* stack size = 0 */
 872               	.L__stack_usage = 0
 232:../../tmk_core/protocol/lufa/lufa.c ****     /* For battery powered device */
 873               		.loc 1 232 0
 874 0000 80E0      		ldi r24,lo8(__c.5018)
 875 0002 90E0      		ldi r25,hi8(__c.5018)
 876 0004 0E94 0000 		call xputs
 877               	.LVL78:
 234:../../tmk_core/protocol/lufa/lufa.c **** /* TODO: This doesn't work. After several plug in/outs can not be enumerated.
 878               		.loc 1 234 0
 879 0008 1092 0000 		sts USB_IsInitialized,__zero_reg__
 880 000c 0895      		ret
 881               		.cfi_endproc
 882               	.LFE120:
 884               		.section	.text.EVENT_USB_Device_Reset,"ax",@progbits
 885               	.global	EVENT_USB_Device_Reset
 887               	EVENT_USB_Device_Reset:
 888               	.LFB145:
 889               		.cfi_startproc
 890               	/* prologue: function */
 891               	/* frame size = 0 */
 892               	/* stack size = 0 */
 893               	.L__stack_usage = 0
 894 0000 0895      		ret
 895               		.cfi_endproc
 896               	.LFE145:
 898               		.section	.text.EVENT_USB_Device_StartOfFrame,"ax",@progbits
 899               	.global	EVENT_USB_Device_StartOfFrame
 901               	EVENT_USB_Device_StartOfFrame:
 902               	.LFB124:
 269:../../tmk_core/protocol/lufa/lufa.c **** }
 903               		.loc 1 269 0
 904               		.cfi_startproc
 905               	/* prologue: function */
 906               	/* frame size = 0 */
 907               	/* stack size = 0 */
 908               	.L__stack_usage = 0
 909 0000 0895      		ret
 910               		.cfi_endproc
 911               	.LFE124:
 913               		.section	.text.EVENT_USB_Device_ConfigurationChanged,"ax",@progbits
 914               	.global	EVENT_USB_Device_ConfigurationChanged
 916               	EVENT_USB_Device_ConfigurationChanged:
 917               	.LFB125:
 279:../../tmk_core/protocol/lufa/lufa.c **** #ifdef LUFA_DEBUG
 918               		.loc 1 279 0
 919               		.cfi_startproc
 920               	/* prologue: function */
 921               	/* frame size = 0 */
 922               	/* stack size = 0 */
 923               	.L__stack_usage = 0
 924               	.LVL79:
 925               	.LBB383:
 926               	.LBB384:
 210:../../tmk_core/protocol/lufa/LUFA-git/LUFA/Drivers/USB/Core/AVR8/../AVR8/Endpoint_AVR8.h **** 				                                      ((Type << EPTYPE0) | ((Address & ENDPOINT_DIR_IN) ? (1 <<
 927               		.loc 2 210 0
 928 0000 42E0      		ldi r20,lo8(2)
 929 0002 61EC      		ldi r22,lo8(-63)
 930 0004 81E0      		ldi r24,lo8(1)
 931 0006 0E94 0000 		call Endpoint_ConfigureEndpoint_Prv
 932               	.LVL80:
 933               	.LBE384:
 934               	.LBE383:
 935               	.LBB385:
 936               	.LBB386:
 937 000a 42E0      		ldi r20,lo8(2)
 938 000c 61EC      		ldi r22,lo8(-63)
 939 000e 82E0      		ldi r24,lo8(2)
 940 0010 0E94 0000 		call Endpoint_ConfigureEndpoint_Prv
 941               	.LVL81:
 942               	.LBE386:
 943               	.LBE385:
 944               	.LBB387:
 945               	.LBB388:
 946 0014 42E0      		ldi r20,lo8(2)
 947 0016 61EC      		ldi r22,lo8(-63)
 948 0018 83E0      		ldi r24,lo8(3)
 949 001a 0E94 0000 		call Endpoint_ConfigureEndpoint_Prv
 950               	.LVL82:
 951               	.LBE388:
 952               	.LBE387:
 953               	.LBB389:
 954               	.LBB390:
 955 001e 42E2      		ldi r20,lo8(34)
 956 0020 61EC      		ldi r22,lo8(-63)
 957 0022 84E0      		ldi r24,lo8(4)
 958 0024 0E94 0000 		call Endpoint_ConfigureEndpoint_Prv
 959               	.LVL83:
 960               	.LBE390:
 961               	.LBE389:
 962               	.LBB391:
 963               	.LBB392:
 964 0028 42E2      		ldi r20,lo8(34)
 965 002a 61EC      		ldi r22,lo8(-63)
 966 002c 85E0      		ldi r24,lo8(5)
 967 002e 0C94 0000 		jmp Endpoint_ConfigureEndpoint_Prv
 968               	.LVL84:
 969               	.LBE392:
 970               	.LBE391:
 971               		.cfi_endproc
 972               	.LFE125:
 974               		.section	.text.EVENT_USB_Device_ControlRequest,"ax",@progbits
 975               	.global	EVENT_USB_Device_ControlRequest
 977               	EVENT_USB_Device_ControlRequest:
 978               	.LFB126:
 335:../../tmk_core/protocol/lufa/lufa.c ****     uint8_t* ReportData = NULL;
 979               		.loc 1 335 0
 980               		.cfi_startproc
 981               	/* prologue: function */
 982               	/* frame size = 0 */
 983               	/* stack size = 0 */
 984               	.L__stack_usage = 0
 985               	.LVL85:
 340:../../tmk_core/protocol/lufa/lufa.c ****     {
 986               		.loc 1 340 0
 987 0000 8091 0000 		lds r24,USB_ControlRequest+1
 988 0004 8330      		cpi r24,lo8(3)
 989 0006 01F4      		brne .+2
 990 0008 00C0      		rjmp .L104
 991 000a 00F4      		brsh .L105
 992 000c 8130      		cpi r24,lo8(1)
 993 000e 01F0      		breq .L106
 994 0010 8230      		cpi r24,lo8(2)
 995 0012 01F4      		brne .+2
 996 0014 00C0      		rjmp .L107
 997 0016 0895      		ret
 998               	.L105:
 999 0018 8A30      		cpi r24,lo8(10)
 1000 001a 01F4      		brne .+2
 1001 001c 00C0      		rjmp .L108
 1002 001e 8B30      		cpi r24,lo8(11)
 1003 0020 01F4      		brne .+2
 1004 0022 00C0      		rjmp .L109
 1005 0024 8930      		cpi r24,lo8(9)
 1006 0026 01F0      		breq .+2
 1007 0028 00C0      		rjmp .L102
 1008 002a 00C0      		rjmp .L137
 1009               	.L106:
 343:../../tmk_core/protocol/lufa/lufa.c ****             {
 1010               		.loc 1 343 0
 1011 002c 8091 0000 		lds r24,USB_ControlRequest
 1012 0030 813A      		cpi r24,lo8(-95)
 1013 0032 01F0      		breq .+2
 1014 0034 00C0      		rjmp .L102
 1015               	.LBB393:
 1016               	.LBB394:
 444:../../tmk_core/protocol/lufa/LUFA-git/LUFA/Drivers/USB/Core/AVR8/../AVR8/Endpoint_AVR8.h **** 			}
 1017               		.loc 2 444 0
 1018 0036 8091 E800 		lds r24,232
 1019 003a 877F      		andi r24,lo8(-9)
 1020 003c 8093 E800 		sts 232,r24
 1021               	.LBE394:
 1022               	.LBE393:
 348:../../tmk_core/protocol/lufa/lufa.c ****                 case KEYBOARD_INTERFACE:
 1023               		.loc 1 348 0
 1024 0040 8091 0000 		lds r24,USB_ControlRequest+4
 1025 0044 9091 0000 		lds r25,USB_ControlRequest+4+1
 1026 0048 892B      		or r24,r25
 1027 004a 01F4      		brne .L134
 352:../../tmk_core/protocol/lufa/lufa.c ****                     break;
 1028               		.loc 1 352 0
 1029 004c 60E2      		ldi r22,lo8(32)
 351:../../tmk_core/protocol/lufa/lufa.c ****                     ReportSize = sizeof(keyboard_report_sent);
 1030               		.loc 1 351 0
 1031 004e 80E0      		ldi r24,lo8(keyboard_report_sent)
 1032 0050 90E0      		ldi r25,hi8(keyboard_report_sent)
 1033 0052 00C0      		rjmp .L112
 1034               	.L134:
 337:../../tmk_core/protocol/lufa/lufa.c **** 
 1035               		.loc 1 337 0
 1036 0054 60E0      		ldi r22,0
 336:../../tmk_core/protocol/lufa/lufa.c ****     uint8_t  ReportSize = 0;
 1037               		.loc 1 336 0
 1038 0056 80E0      		ldi r24,0
 1039 0058 90E0      		ldi r25,0
 1040               	.L112:
 1041               	.LVL86:
 357:../../tmk_core/protocol/lufa/lufa.c ****                 Endpoint_ClearOUT();
 1042               		.loc 1 357 0
 1043 005a 70E0      		ldi r23,0
 1044 005c 0E94 0000 		call Endpoint_Write_Control_Stream_LE
 1045               	.LVL87:
 1046               	.LBB395:
 1047               	.LBB396:
 471:../../tmk_core/protocol/lufa/LUFA-git/LUFA/Drivers/USB/Core/AVR8/../AVR8/Endpoint_AVR8.h **** 				#else
 1048               		.loc 2 471 0
 1049 0060 8091 E800 		lds r24,232
 1050 0064 8B77      		andi r24,lo8(123)
 1051 0066 8093 E800 		sts 232,r24
 1052 006a 0895      		ret
 1053               	.LVL88:
 1054               	.L137:
 1055               	.LBE396:
 1056               	.LBE395:
 366:../../tmk_core/protocol/lufa/lufa.c ****             {
 1057               		.loc 1 366 0
 1058 006c 8091 0000 		lds r24,USB_ControlRequest
 1059 0070 8132      		cpi r24,lo8(33)
 1060 0072 01F0      		breq .+2
 1061 0074 00C0      		rjmp .L102
 370:../../tmk_core/protocol/lufa/lufa.c ****                 case KEYBOARD_INTERFACE:
 1062               		.loc 1 370 0
 1063 0076 8091 0000 		lds r24,USB_ControlRequest+4
 1064 007a 9091 0000 		lds r25,USB_ControlRequest+4+1
 1065 007e 0097      		sbiw r24,0
 1066 0080 01F0      		breq .L115
 1067 0082 0497      		sbiw r24,4
 1068 0084 01F0      		breq .+2
 1069 0086 00C0      		rjmp .L102
 1070               	.L115:
 1071               	.LBB397:
 1072               	.LBB398:
 444:../../tmk_core/protocol/lufa/LUFA-git/LUFA/Drivers/USB/Core/AVR8/../AVR8/Endpoint_AVR8.h **** 			}
 1073               		.loc 2 444 0
 1074 0088 8091 E800 		lds r24,232
 1075 008c 877F      		andi r24,lo8(-9)
 1076 008e 8093 E800 		sts 232,r24
 1077               	.L116:
 1078               	.LBE398:
 1079               	.LBE397:
 1080               	.LBB399:
 1081               	.LBB400:
 419:../../tmk_core/protocol/lufa/LUFA-git/LUFA/Drivers/USB/Core/AVR8/../AVR8/Endpoint_AVR8.h **** 			}
 1082               		.loc 2 419 0
 1083 0092 8091 E800 		lds r24,232
 1084               	.LBE400:
 1085               	.LBE399:
 377:../../tmk_core/protocol/lufa/lufa.c ****                         if (USB_DeviceState == DEVICE_STATE_Unattached)
 1086               		.loc 1 377 0
 1087 0096 82FD      		sbrc r24,2
 1088 0098 00C0      		rjmp .L138
 378:../../tmk_core/protocol/lufa/lufa.c ****                           return;
 1089               		.loc 1 378 0
 1090 009a 8091 0000 		lds r24,USB_DeviceState
 1091 009e 8111      		cpse r24,__zero_reg__
 1092 00a0 00C0      		rjmp .L116
 1093 00a2 00C0      		rjmp .L102
 1094               	.L138:
 1095               	.LBB401:
 1096               	.LBB402:
 542:../../tmk_core/protocol/lufa/LUFA-git/LUFA/Drivers/USB/Core/AVR8/../AVR8/Endpoint_AVR8.h **** 			}
 1097               		.loc 2 542 0
 1098 00a4 8091 F100 		lds r24,241
 1099               	.LBE402:
 1100               	.LBE401:
 381:../../tmk_core/protocol/lufa/lufa.c **** 
 1101               		.loc 1 381 0
 1102 00a8 8093 0000 		sts keyboard_led_stats,r24
 1103               	.LBB403:
 1104               	.LBB404:
 471:../../tmk_core/protocol/lufa/LUFA-git/LUFA/Drivers/USB/Core/AVR8/../AVR8/Endpoint_AVR8.h **** 				#else
 1105               		.loc 2 471 0
 1106 00ac 8091 E800 		lds r24,232
 1107 00b0 8B77      		andi r24,lo8(123)
 1108 00b2 00C0      		rjmp .L135
 1109               	.L104:
 1110               	.LBE404:
 1111               	.LBE403:
 396:../../tmk_core/protocol/lufa/lufa.c ****             {
 1112               		.loc 1 396 0
 1113 00b4 8091 0000 		lds r24,USB_ControlRequest
 1114 00b8 813A      		cpi r24,lo8(-95)
 1115 00ba 01F0      		breq .+2
 1116 00bc 00C0      		rjmp .L102
 398:../../tmk_core/protocol/lufa/lufa.c ****                     Endpoint_ClearSETUP();
 1117               		.loc 1 398 0
 1118 00be 8091 0000 		lds r24,USB_ControlRequest+4
 1119 00c2 9091 0000 		lds r25,USB_ControlRequest+4+1
 1120 00c6 892B      		or r24,r25
 1121 00c8 01F0      		breq .+2
 1122 00ca 00C0      		rjmp .L102
 1123               	.LBB405:
 1124               	.LBB406:
 444:../../tmk_core/protocol/lufa/LUFA-git/LUFA/Drivers/USB/Core/AVR8/../AVR8/Endpoint_AVR8.h **** 			}
 1125               		.loc 2 444 0
 1126 00cc 8091 E800 		lds r24,232
 1127 00d0 877F      		andi r24,lo8(-9)
 1128 00d2 8093 E800 		sts 232,r24
 1129               	.L118:
 1130               	.LBE406:
 1131               	.LBE405:
 1132               	.LBB407:
 1133               	.LBB408:
 407:../../tmk_core/protocol/lufa/LUFA-git/LUFA/Drivers/USB/Core/AVR8/../AVR8/Endpoint_AVR8.h **** 			}
 1134               		.loc 2 407 0 discriminator 1
 1135 00d6 8091 E800 		lds r24,232
 1136               	.LBE408:
 1137               	.LBE407:
 400:../../tmk_core/protocol/lufa/lufa.c ****                     Endpoint_Write_8(keyboard_protocol);
 1138               		.loc 1 400 0 discriminator 1
 1139 00da 80FF      		sbrs r24,0
 1140 00dc 00C0      		rjmp .L118
 401:../../tmk_core/protocol/lufa/lufa.c ****                     Endpoint_ClearIN();
 1141               		.loc 1 401 0
 1142 00de 8091 0000 		lds r24,keyboard_protocol
 1143               	.LVL89:
 1144 00e2 00C0      		rjmp .L136
 1145               	.LVL90:
 1146               	.L109:
 412:../../tmk_core/protocol/lufa/lufa.c ****             {
 1147               		.loc 1 412 0
 1148 00e4 8091 0000 		lds r24,USB_ControlRequest
 1149 00e8 8132      		cpi r24,lo8(33)
 1150 00ea 01F4      		brne .L102
 414:../../tmk_core/protocol/lufa/lufa.c ****                     Endpoint_ClearSETUP();
 1151               		.loc 1 414 0
 1152 00ec 8091 0000 		lds r24,USB_ControlRequest+4
 1153 00f0 9091 0000 		lds r25,USB_ControlRequest+4+1
 1154 00f4 892B      		or r24,r25
 1155 00f6 01F4      		brne .L102
 1156               	.LBB409:
 1157               	.LBB410:
 444:../../tmk_core/protocol/lufa/LUFA-git/LUFA/Drivers/USB/Core/AVR8/../AVR8/Endpoint_AVR8.h **** 			}
 1158               		.loc 2 444 0
 1159 00f8 8091 E800 		lds r24,232
 1160 00fc 877F      		andi r24,lo8(-9)
 1161 00fe 8093 E800 		sts 232,r24
 1162               	.LBE410:
 1163               	.LBE409:
 416:../../tmk_core/protocol/lufa/lufa.c **** 
 1164               		.loc 1 416 0
 1165 0102 0E94 0000 		call Endpoint_ClearStatusStage
 1166               	.LVL91:
 418:../../tmk_core/protocol/lufa/lufa.c ****                     clear_keyboard();
 1167               		.loc 1 418 0
 1168 0106 8091 0000 		lds r24,USB_ControlRequest+2
 1169 010a 8093 0000 		sts keyboard_protocol,r24
 419:../../tmk_core/protocol/lufa/lufa.c **** #ifdef LUFA_DEBUG
 1170               		.loc 1 419 0
 1171 010e 0C94 0000 		jmp clear_keyboard
 1172               	.LVL92:
 1173               	.L108:
 428:../../tmk_core/protocol/lufa/lufa.c ****             {
 1174               		.loc 1 428 0
 1175 0112 8091 0000 		lds r24,USB_ControlRequest
 1176 0116 8132      		cpi r24,lo8(33)
 1177 0118 01F4      		brne .L102
 1178               	.LBB411:
 1179               	.LBB412:
 444:../../tmk_core/protocol/lufa/LUFA-git/LUFA/Drivers/USB/Core/AVR8/../AVR8/Endpoint_AVR8.h **** 			}
 1180               		.loc 2 444 0
 1181 011a 8091 E800 		lds r24,232
 1182 011e 877F      		andi r24,lo8(-9)
 1183 0120 8093 E800 		sts 232,r24
 1184               	.LBE412:
 1185               	.LBE411:
 431:../../tmk_core/protocol/lufa/lufa.c **** 
 1186               		.loc 1 431 0
 1187 0124 0E94 0000 		call Endpoint_ClearStatusStage
 1188               	.LVL93:
 433:../../tmk_core/protocol/lufa/lufa.c **** #ifdef LUFA_DEBUG
 1189               		.loc 1 433 0
 1190 0128 8091 0000 		lds r24,USB_ControlRequest+3
 1191 012c 8093 0000 		sts keyboard_idle,r24
 1192 0130 0895      		ret
 1193               	.L107:
 441:../../tmk_core/protocol/lufa/lufa.c ****             {
 1194               		.loc 1 441 0
 1195 0132 8091 0000 		lds r24,USB_ControlRequest
 1196 0136 813A      		cpi r24,lo8(-95)
 1197 0138 01F4      		brne .L102
 1198               	.LBB413:
 1199               	.LBB414:
 444:../../tmk_core/protocol/lufa/LUFA-git/LUFA/Drivers/USB/Core/AVR8/../AVR8/Endpoint_AVR8.h **** 			}
 1200               		.loc 2 444 0
 1201 013a 8091 E800 		lds r24,232
 1202 013e 877F      		andi r24,lo8(-9)
 1203 0140 8093 E800 		sts 232,r24
 1204               	.L119:
 1205               	.LBE414:
 1206               	.LBE413:
 1207               	.LBB415:
 1208               	.LBB416:
 407:../../tmk_core/protocol/lufa/LUFA-git/LUFA/Drivers/USB/Core/AVR8/../AVR8/Endpoint_AVR8.h **** 			}
 1209               		.loc 2 407 0 discriminator 1
 1210 0144 8091 E800 		lds r24,232
 1211               	.LBE416:
 1212               	.LBE415:
 444:../../tmk_core/protocol/lufa/lufa.c ****                 Endpoint_Write_8(keyboard_idle);
 1213               		.loc 1 444 0 discriminator 1
 1214 0148 80FF      		sbrs r24,0
 1215 014a 00C0      		rjmp .L119
 445:../../tmk_core/protocol/lufa/lufa.c ****                 Endpoint_ClearIN();
 1216               		.loc 1 445 0
 1217 014c 8091 0000 		lds r24,keyboard_idle
 1218               	.L136:
 1219               	.LVL94:
 1220               	.LBB417:
 1221               	.LBB418:
 1222               		.loc 2 554 0
 1223 0150 8093 F100 		sts 241,r24
 1224               	.LVL95:
 1225               	.LBE418:
 1226               	.LBE417:
 1227               	.LBB419:
 1228               	.LBB420:
 456:../../tmk_core/protocol/lufa/LUFA-git/LUFA/Drivers/USB/Core/AVR8/../AVR8/Endpoint_AVR8.h **** 				#else
 1229               		.loc 2 456 0
 1230 0154 8091 E800 		lds r24,232
 1231 0158 8E77      		andi r24,lo8(126)
 1232               	.L135:
 1233 015a 8093 E800 		sts 232,r24
 1234               	.LBE420:
 1235               	.LBE419:
 447:../../tmk_core/protocol/lufa/lufa.c **** #ifdef LUFA_DEBUG
 1236               		.loc 1 447 0
 1237 015e 0C94 0000 		jmp Endpoint_ClearStatusStage
 1238               	.LVL96:
 1239               	.L102:
 1240 0162 0895      		ret
 1241               		.cfi_endproc
 1242               	.LFE126:
 1244               		.section	.text.hook_late_init,"ax",@progbits
 1245               		.weak	hook_late_init
 1247               	hook_late_init:
 1248               	.LFB137:
 588:../../tmk_core/protocol/lufa/lufa.c **** #else
 589:../../tmk_core/protocol/lufa/lufa.c **** int8_t sendchar(uint8_t c)
 590:../../tmk_core/protocol/lufa/lufa.c **** {
 591:../../tmk_core/protocol/lufa/lufa.c ****     #ifdef LUFA_DEBUG_SUART
 592:../../tmk_core/protocol/lufa/lufa.c ****     xmit(c);
 593:../../tmk_core/protocol/lufa/lufa.c ****     #endif
 594:../../tmk_core/protocol/lufa/lufa.c ****     return 0;
 595:../../tmk_core/protocol/lufa/lufa.c **** }
 596:../../tmk_core/protocol/lufa/lufa.c **** #endif
 597:../../tmk_core/protocol/lufa/lufa.c **** 
 598:../../tmk_core/protocol/lufa/lufa.c **** 
 599:../../tmk_core/protocol/lufa/lufa.c **** /*******************************************************************************
 600:../../tmk_core/protocol/lufa/lufa.c ****  * main
 601:../../tmk_core/protocol/lufa/lufa.c ****  ******************************************************************************/
 602:../../tmk_core/protocol/lufa/lufa.c **** static void setup_mcu(void)
 603:../../tmk_core/protocol/lufa/lufa.c **** {
 604:../../tmk_core/protocol/lufa/lufa.c ****     /* Disable watchdog if enabled by bootloader/fuses */
 605:../../tmk_core/protocol/lufa/lufa.c ****     MCUSR &= ~(1 << WDRF);
 606:../../tmk_core/protocol/lufa/lufa.c ****     wdt_disable();
 607:../../tmk_core/protocol/lufa/lufa.c **** 
 608:../../tmk_core/protocol/lufa/lufa.c ****     /* Disable clock division */
 609:../../tmk_core/protocol/lufa/lufa.c ****     clock_prescale_set(clock_div_1);
 610:../../tmk_core/protocol/lufa/lufa.c **** }
 611:../../tmk_core/protocol/lufa/lufa.c **** 
 612:../../tmk_core/protocol/lufa/lufa.c **** static void setup_usb(void)
 613:../../tmk_core/protocol/lufa/lufa.c **** {
 614:../../tmk_core/protocol/lufa/lufa.c ****     // Leonardo needs. Without this USB device is not recognized.
 615:../../tmk_core/protocol/lufa/lufa.c ****     USB_Disable();
 616:../../tmk_core/protocol/lufa/lufa.c **** 
 617:../../tmk_core/protocol/lufa/lufa.c ****     USB_Init();
 618:../../tmk_core/protocol/lufa/lufa.c **** 
 619:../../tmk_core/protocol/lufa/lufa.c ****     USB_Device_EnableSOFEvents();
 620:../../tmk_core/protocol/lufa/lufa.c **** }
 621:../../tmk_core/protocol/lufa/lufa.c **** 
 622:../../tmk_core/protocol/lufa/lufa.c **** int main(void)  __attribute__ ((weak));
 623:../../tmk_core/protocol/lufa/lufa.c **** int main(void)
 624:../../tmk_core/protocol/lufa/lufa.c **** {
 625:../../tmk_core/protocol/lufa/lufa.c ****     setup_mcu();
 626:../../tmk_core/protocol/lufa/lufa.c **** 
 627:../../tmk_core/protocol/lufa/lufa.c **** #ifdef LUFA_DEBUG_SUART
 628:../../tmk_core/protocol/lufa/lufa.c ****     SUART_OUT_DDR |= (1<<SUART_OUT_BIT);
 629:../../tmk_core/protocol/lufa/lufa.c ****     SUART_OUT_PORT |= (1<<SUART_OUT_BIT);
 630:../../tmk_core/protocol/lufa/lufa.c **** #endif
 631:../../tmk_core/protocol/lufa/lufa.c **** 
 632:../../tmk_core/protocol/lufa/lufa.c ****     // setup sendchar: DO NOT USE print functions before this line
 633:../../tmk_core/protocol/lufa/lufa.c ****     print_set_sendchar(sendchar);
 634:../../tmk_core/protocol/lufa/lufa.c ****     host_set_driver(&lufa_driver);
 635:../../tmk_core/protocol/lufa/lufa.c **** 
 636:../../tmk_core/protocol/lufa/lufa.c ****     print("Keyboard init.\n");
 637:../../tmk_core/protocol/lufa/lufa.c ****     hook_early_init();
 638:../../tmk_core/protocol/lufa/lufa.c ****     keyboard_setup();
 639:../../tmk_core/protocol/lufa/lufa.c ****     setup_usb();
 640:../../tmk_core/protocol/lufa/lufa.c **** #ifdef SLEEP_LED_ENABLE
 641:../../tmk_core/protocol/lufa/lufa.c ****     sleep_led_init();
 642:../../tmk_core/protocol/lufa/lufa.c **** #endif
 643:../../tmk_core/protocol/lufa/lufa.c **** 
 644:../../tmk_core/protocol/lufa/lufa.c ****     sei();
 645:../../tmk_core/protocol/lufa/lufa.c **** 
 646:../../tmk_core/protocol/lufa/lufa.c ****     keyboard_init();
 647:../../tmk_core/protocol/lufa/lufa.c **** 
 648:../../tmk_core/protocol/lufa/lufa.c ****     /* wait for USB startup */
 649:../../tmk_core/protocol/lufa/lufa.c ****     while (USB_DeviceState != DEVICE_STATE_Configured) {
 650:../../tmk_core/protocol/lufa/lufa.c **** #if defined(INTERRUPT_CONTROL_ENDPOINT)
 651:../../tmk_core/protocol/lufa/lufa.c ****         ;
 652:../../tmk_core/protocol/lufa/lufa.c **** #else
 653:../../tmk_core/protocol/lufa/lufa.c ****         USB_USBTask();
 654:../../tmk_core/protocol/lufa/lufa.c **** #endif
 655:../../tmk_core/protocol/lufa/lufa.c ****         matrix_scan();
 656:../../tmk_core/protocol/lufa/lufa.c ****     }
 657:../../tmk_core/protocol/lufa/lufa.c **** 
 658:../../tmk_core/protocol/lufa/lufa.c ****     hook_late_init();
 659:../../tmk_core/protocol/lufa/lufa.c **** 
 660:../../tmk_core/protocol/lufa/lufa.c ****     print("\nKeyboard start.\n");
 661:../../tmk_core/protocol/lufa/lufa.c ****     while (1) {
 662:../../tmk_core/protocol/lufa/lufa.c ****         while (USB_DeviceState == DEVICE_STATE_Suspended) {
 663:../../tmk_core/protocol/lufa/lufa.c **** #ifdef LUFA_DEBUG
 664:../../tmk_core/protocol/lufa/lufa.c ****             print("[s]");
 665:../../tmk_core/protocol/lufa/lufa.c **** #endif
 666:../../tmk_core/protocol/lufa/lufa.c ****             hook_usb_suspend_loop();
 667:../../tmk_core/protocol/lufa/lufa.c ****         }
 668:../../tmk_core/protocol/lufa/lufa.c **** 
 669:../../tmk_core/protocol/lufa/lufa.c ****         keyboard_task();
 670:../../tmk_core/protocol/lufa/lufa.c **** 
 671:../../tmk_core/protocol/lufa/lufa.c **** #ifdef CONSOLE_ENABLE
 672:../../tmk_core/protocol/lufa/lufa.c ****         console_task();
 673:../../tmk_core/protocol/lufa/lufa.c **** #endif
 674:../../tmk_core/protocol/lufa/lufa.c **** 
 675:../../tmk_core/protocol/lufa/lufa.c **** #if !defined(INTERRUPT_CONTROL_ENDPOINT)
 676:../../tmk_core/protocol/lufa/lufa.c ****         USB_USBTask();
 677:../../tmk_core/protocol/lufa/lufa.c **** #endif
 678:../../tmk_core/protocol/lufa/lufa.c ****     }
 679:../../tmk_core/protocol/lufa/lufa.c **** }
 680:../../tmk_core/protocol/lufa/lufa.c **** 
 681:../../tmk_core/protocol/lufa/lufa.c **** 
 682:../../tmk_core/protocol/lufa/lufa.c **** /* hooks */
 683:../../tmk_core/protocol/lufa/lufa.c **** __attribute__((weak))
 684:../../tmk_core/protocol/lufa/lufa.c **** void hook_early_init(void) {}
 685:../../tmk_core/protocol/lufa/lufa.c **** 
 686:../../tmk_core/protocol/lufa/lufa.c **** __attribute__((weak))
 687:../../tmk_core/protocol/lufa/lufa.c **** void hook_late_init(void) {}
 1249               		.loc 1 687 0
 1250               		.cfi_startproc
 1251               	/* prologue: function */
 1252               	/* frame size = 0 */
 1253               	/* stack size = 0 */
 1254               	.L__stack_usage = 0
 1255 0000 0895      		ret
 1256               		.cfi_endproc
 1257               	.LFE137:
 1259               		.set	hook_late_init.localalias.1,hook_late_init
 1260               		.section	.text.hook_early_init,"ax",@progbits
 1261               		.weak	hook_early_init
 1263               	hook_early_init:
 1264               	.LFB143:
 1265               		.cfi_startproc
 1266               	/* prologue: function */
 1267               	/* frame size = 0 */
 1268               	/* stack size = 0 */
 1269               	.L__stack_usage = 0
 1270 0000 0C94 0000 		jmp hook_late_init.localalias.1
 1271               		.cfi_endproc
 1272               	.LFE143:
 1274               		.section	.text.hook_usb_suspend_entry,"ax",@progbits
 1275               		.weak	hook_usb_suspend_entry
 1277               	hook_usb_suspend_entry:
 1278               	.LFB138:
 688:../../tmk_core/protocol/lufa/lufa.c **** 
 689:../../tmk_core/protocol/lufa/lufa.c **** static uint8_t _led_stats = 0;
 690:../../tmk_core/protocol/lufa/lufa.c ****  __attribute__((weak))
 691:../../tmk_core/protocol/lufa/lufa.c **** void hook_usb_suspend_entry(void)
 692:../../tmk_core/protocol/lufa/lufa.c **** {
 1279               		.loc 1 692 0
 1280               		.cfi_startproc
 1281               	/* prologue: function */
 1282               	/* frame size = 0 */
 1283               	/* stack size = 0 */
 1284               	.L__stack_usage = 0
 693:../../tmk_core/protocol/lufa/lufa.c ****     // Turn LED off to save power
 694:../../tmk_core/protocol/lufa/lufa.c ****     // Set 0 with putting aside status before suspend and restore
 695:../../tmk_core/protocol/lufa/lufa.c ****     // it after wakeup, then LED is updated at keyboard_task() in main loop
 696:../../tmk_core/protocol/lufa/lufa.c ****     _led_stats = keyboard_led_stats;
 1285               		.loc 1 696 0
 1286 0000 8091 0000 		lds r24,keyboard_led_stats
 1287 0004 8093 0000 		sts _led_stats,r24
 697:../../tmk_core/protocol/lufa/lufa.c ****     keyboard_led_stats = 0;
 1288               		.loc 1 697 0
 1289 0008 1092 0000 		sts keyboard_led_stats,__zero_reg__
 698:../../tmk_core/protocol/lufa/lufa.c ****     led_set(keyboard_led_stats);
 1290               		.loc 1 698 0
 1291 000c 80E0      		ldi r24,0
 1292 000e 0E94 0000 		call led_set
 1293               	.LVL97:
 699:../../tmk_core/protocol/lufa/lufa.c **** 
 700:../../tmk_core/protocol/lufa/lufa.c ****     matrix_clear();
 1294               		.loc 1 700 0
 1295 0012 0E94 0000 		call matrix_clear
 1296               	.LVL98:
 701:../../tmk_core/protocol/lufa/lufa.c ****     clear_keyboard();
 1297               		.loc 1 701 0
 1298 0016 0C94 0000 		jmp clear_keyboard
 1299               	.LVL99:
 1300               		.cfi_endproc
 1301               	.LFE138:
 1303               		.section	.text.EVENT_USB_Device_Suspend,"ax",@progbits
 1304               	.global	EVENT_USB_Device_Suspend
 1306               	EVENT_USB_Device_Suspend:
 1307               	.LFB122:
 252:../../tmk_core/protocol/lufa/lufa.c **** #ifdef LUFA_DEBUG
 1308               		.loc 1 252 0
 1309               		.cfi_startproc
 1310               	/* prologue: function */
 1311               	/* frame size = 0 */
 1312               	/* stack size = 0 */
 1313               	.L__stack_usage = 0
 256:../../tmk_core/protocol/lufa/lufa.c **** }
 1314               		.loc 1 256 0
 1315 0000 0C94 0000 		jmp hook_usb_suspend_entry
 1316               	.LVL100:
 1317               		.cfi_endproc
 1318               	.LFE122:
 1320               		.section	.text.hook_usb_suspend_loop,"ax",@progbits
 1321               		.weak	hook_usb_suspend_loop
 1323               	hook_usb_suspend_loop:
 1324               	.LFB139:
 702:../../tmk_core/protocol/lufa/lufa.c **** #ifdef SLEEP_LED_ENABLE
 703:../../tmk_core/protocol/lufa/lufa.c ****     sleep_led_enable();
 704:../../tmk_core/protocol/lufa/lufa.c **** #endif
 705:../../tmk_core/protocol/lufa/lufa.c **** }
 706:../../tmk_core/protocol/lufa/lufa.c **** 
 707:../../tmk_core/protocol/lufa/lufa.c **** __attribute__((weak))
 708:../../tmk_core/protocol/lufa/lufa.c **** void hook_usb_suspend_loop(void)
 709:../../tmk_core/protocol/lufa/lufa.c **** {
 1325               		.loc 1 709 0
 1326               		.cfi_startproc
 1327               	/* prologue: function */
 1328               	/* frame size = 0 */
 1329               	/* stack size = 0 */
 1330               	.L__stack_usage = 0
 710:../../tmk_core/protocol/lufa/lufa.c ****     suspend_power_down();
 1331               		.loc 1 710 0
 1332 0000 0E94 0000 		call suspend_power_down
 1333               	.LVL101:
 711:../../tmk_core/protocol/lufa/lufa.c ****     if (USB_Device_RemoteWakeupEnabled && suspend_wakeup_condition()) {
 1334               		.loc 1 711 0
 1335 0004 8091 0000 		lds r24,USB_Device_RemoteWakeupEnabled
 1336 0008 8823      		tst r24
 1337 000a 01F0      		breq .L143
 1338               		.loc 1 711 0 is_stmt 0 discriminator 1
 1339 000c 0E94 0000 		call suspend_wakeup_condition
 1340               	.LVL102:
 1341 0010 8111      		cpse r24,__zero_reg__
 712:../../tmk_core/protocol/lufa/lufa.c ****         USB_Device_SendRemoteWakeup();
 1342               		.loc 1 712 0 is_stmt 1
 1343 0012 0C94 0000 		jmp USB_Device_SendRemoteWakeup
 1344               	.LVL103:
 1345               	.L143:
 1346 0016 0895      		ret
 1347               		.cfi_endproc
 1348               	.LFE139:
 1350               		.section	.text.startup.main,"ax",@progbits
 1351               		.weak	main
 1353               	main:
 1354               	.LFB135:
 624:../../tmk_core/protocol/lufa/lufa.c ****     setup_mcu();
 1355               		.loc 1 624 0
 1356               		.cfi_startproc
 1357 0000 CF93      		push r28
 1358               	.LCFI12:
 1359               		.cfi_def_cfa_offset 3
 1360               		.cfi_offset 28, -2
 1361               	/* prologue: function */
 1362               	/* frame size = 0 */
 1363               	/* stack size = 1 */
 1364               	.L__stack_usage = 1
 1365               	.LBB478:
 1366               	.LBB479:
 605:../../tmk_core/protocol/lufa/lufa.c ****     wdt_disable();
 1367               		.loc 1 605 0
 1368 0002 84B7      		in r24,0x34
 1369 0004 877F      		andi r24,lo8(-9)
 1370 0006 84BF      		out 0x34,r24
 1371               	.LBB480:
 1372               	.LBB481:
 1373               		.file 6 "/usr/lib/avr/include/avr/wdt.h"
   1:/usr/lib/avr/include/avr/wdt.h **** /* Copyright (c) 2002, 2004 Marek Michalkiewicz
   2:/usr/lib/avr/include/avr/wdt.h ****    Copyright (c) 2005, 2006, 2007 Eric B. Weddington
   3:/usr/lib/avr/include/avr/wdt.h ****    All rights reserved.
   4:/usr/lib/avr/include/avr/wdt.h **** 
   5:/usr/lib/avr/include/avr/wdt.h ****    Redistribution and use in source and binary forms, with or without
   6:/usr/lib/avr/include/avr/wdt.h ****    modification, are permitted provided that the following conditions are met:
   7:/usr/lib/avr/include/avr/wdt.h **** 
   8:/usr/lib/avr/include/avr/wdt.h ****    * Redistributions of source code must retain the above copyright
   9:/usr/lib/avr/include/avr/wdt.h ****      notice, this list of conditions and the following disclaimer.
  10:/usr/lib/avr/include/avr/wdt.h **** 
  11:/usr/lib/avr/include/avr/wdt.h ****    * Redistributions in binary form must reproduce the above copyright
  12:/usr/lib/avr/include/avr/wdt.h ****      notice, this list of conditions and the following disclaimer in
  13:/usr/lib/avr/include/avr/wdt.h ****      the documentation and/or other materials provided with the
  14:/usr/lib/avr/include/avr/wdt.h ****      distribution.
  15:/usr/lib/avr/include/avr/wdt.h **** 
  16:/usr/lib/avr/include/avr/wdt.h ****    * Neither the name of the copyright holders nor the names of
  17:/usr/lib/avr/include/avr/wdt.h ****      contributors may be used to endorse or promote products derived
  18:/usr/lib/avr/include/avr/wdt.h ****      from this software without specific prior written permission.
  19:/usr/lib/avr/include/avr/wdt.h **** 
  20:/usr/lib/avr/include/avr/wdt.h ****   THIS SOFTWARE IS PROVIDED BY THE COPYRIGHT HOLDERS AND CONTRIBUTORS "AS IS"
  21:/usr/lib/avr/include/avr/wdt.h ****   AND ANY EXPRESS OR IMPLIED WARRANTIES, INCLUDING, BUT NOT LIMITED TO, THE
  22:/usr/lib/avr/include/avr/wdt.h ****   IMPLIED WARRANTIES OF MERCHANTABILITY AND FITNESS FOR A PARTICULAR PURPOSE
  23:/usr/lib/avr/include/avr/wdt.h ****   ARE DISCLAIMED. IN NO EVENT SHALL THE COPYRIGHT OWNER OR CONTRIBUTORS BE
  24:/usr/lib/avr/include/avr/wdt.h ****   LIABLE FOR ANY DIRECT, INDIRECT, INCIDENTAL, SPECIAL, EXEMPLARY, OR
  25:/usr/lib/avr/include/avr/wdt.h ****   CONSEQUENTIAL DAMAGES (INCLUDING, BUT NOT LIMITED TO, PROCUREMENT OF
  26:/usr/lib/avr/include/avr/wdt.h ****   SUBSTITUTE GOODS OR SERVICES; LOSS OF USE, DATA, OR PROFITS; OR BUSINESS
  27:/usr/lib/avr/include/avr/wdt.h ****   INTERRUPTION) HOWEVER CAUSED AND ON ANY THEORY OF LIABILITY, WHETHER IN
  28:/usr/lib/avr/include/avr/wdt.h ****   CONTRACT, STRICT LIABILITY, OR TORT (INCLUDING NEGLIGENCE OR OTHERWISE)
  29:/usr/lib/avr/include/avr/wdt.h ****   ARISING IN ANY WAY OUT OF THE USE OF THIS SOFTWARE, EVEN IF ADVISED OF THE
  30:/usr/lib/avr/include/avr/wdt.h ****   POSSIBILITY OF SUCH DAMAGE. */
  31:/usr/lib/avr/include/avr/wdt.h **** 
  32:/usr/lib/avr/include/avr/wdt.h **** /* $Id$ */
  33:/usr/lib/avr/include/avr/wdt.h **** 
  34:/usr/lib/avr/include/avr/wdt.h **** /*
  35:/usr/lib/avr/include/avr/wdt.h ****    avr/wdt.h - macros for AVR watchdog timer
  36:/usr/lib/avr/include/avr/wdt.h ****  */
  37:/usr/lib/avr/include/avr/wdt.h **** 
  38:/usr/lib/avr/include/avr/wdt.h **** #ifndef _AVR_WDT_H_
  39:/usr/lib/avr/include/avr/wdt.h **** #define _AVR_WDT_H_
  40:/usr/lib/avr/include/avr/wdt.h **** 
  41:/usr/lib/avr/include/avr/wdt.h **** #include <avr/io.h>
  42:/usr/lib/avr/include/avr/wdt.h **** #include <stdint.h>
  43:/usr/lib/avr/include/avr/wdt.h **** 
  44:/usr/lib/avr/include/avr/wdt.h **** /** \file */
  45:/usr/lib/avr/include/avr/wdt.h **** /** \defgroup avr_watchdog <avr/wdt.h>: Watchdog timer handling
  46:/usr/lib/avr/include/avr/wdt.h ****     \code #include <avr/wdt.h> \endcode
  47:/usr/lib/avr/include/avr/wdt.h **** 
  48:/usr/lib/avr/include/avr/wdt.h ****     This header file declares the interface to some inline macros
  49:/usr/lib/avr/include/avr/wdt.h ****     handling the watchdog timer present in many AVR devices.  In order
  50:/usr/lib/avr/include/avr/wdt.h ****     to prevent the watchdog timer configuration from being
  51:/usr/lib/avr/include/avr/wdt.h ****     accidentally altered by a crashing application, a special timed
  52:/usr/lib/avr/include/avr/wdt.h ****     sequence is required in order to change it.  The macros within
  53:/usr/lib/avr/include/avr/wdt.h ****     this header file handle the required sequence automatically
  54:/usr/lib/avr/include/avr/wdt.h ****     before changing any value.  Interrupts will be disabled during
  55:/usr/lib/avr/include/avr/wdt.h ****     the manipulation.
  56:/usr/lib/avr/include/avr/wdt.h **** 
  57:/usr/lib/avr/include/avr/wdt.h ****     \note Depending on the fuse configuration of the particular
  58:/usr/lib/avr/include/avr/wdt.h ****     device, further restrictions might apply, in particular it might
  59:/usr/lib/avr/include/avr/wdt.h ****     be disallowed to turn off the watchdog timer.
  60:/usr/lib/avr/include/avr/wdt.h **** 
  61:/usr/lib/avr/include/avr/wdt.h ****     Note that for newer devices (ATmega88 and newer, effectively any
  62:/usr/lib/avr/include/avr/wdt.h ****     AVR that has the option to also generate interrupts), the watchdog
  63:/usr/lib/avr/include/avr/wdt.h ****     timer remains active even after a system reset (except a power-on
  64:/usr/lib/avr/include/avr/wdt.h ****     condition), using the fastest prescaler value (approximately 15
  65:/usr/lib/avr/include/avr/wdt.h ****     ms).  It is therefore required to turn off the watchdog early
  66:/usr/lib/avr/include/avr/wdt.h ****     during program startup, the datasheet recommends a sequence like
  67:/usr/lib/avr/include/avr/wdt.h ****     the following:
  68:/usr/lib/avr/include/avr/wdt.h **** 
  69:/usr/lib/avr/include/avr/wdt.h ****     \code
  70:/usr/lib/avr/include/avr/wdt.h ****     #include <stdint.h>
  71:/usr/lib/avr/include/avr/wdt.h ****     #include <avr/wdt.h>
  72:/usr/lib/avr/include/avr/wdt.h **** 
  73:/usr/lib/avr/include/avr/wdt.h ****     uint8_t mcusr_mirror __attribute__ ((section (".noinit")));
  74:/usr/lib/avr/include/avr/wdt.h **** 
  75:/usr/lib/avr/include/avr/wdt.h ****     void get_mcusr(void) \
  76:/usr/lib/avr/include/avr/wdt.h ****       __attribute__((naked)) \
  77:/usr/lib/avr/include/avr/wdt.h ****       __attribute__((section(".init3")));
  78:/usr/lib/avr/include/avr/wdt.h ****     void get_mcusr(void)
  79:/usr/lib/avr/include/avr/wdt.h ****     {
  80:/usr/lib/avr/include/avr/wdt.h ****       mcusr_mirror = MCUSR;
  81:/usr/lib/avr/include/avr/wdt.h ****       MCUSR = 0;
  82:/usr/lib/avr/include/avr/wdt.h ****       wdt_disable();
  83:/usr/lib/avr/include/avr/wdt.h ****     }
  84:/usr/lib/avr/include/avr/wdt.h ****     \endcode
  85:/usr/lib/avr/include/avr/wdt.h **** 
  86:/usr/lib/avr/include/avr/wdt.h ****     Saving the value of MCUSR in \c mcusr_mirror is only needed if the
  87:/usr/lib/avr/include/avr/wdt.h ****     application later wants to examine the reset source, but in particular, 
  88:/usr/lib/avr/include/avr/wdt.h ****     clearing the watchdog reset flag before disabling the
  89:/usr/lib/avr/include/avr/wdt.h ****     watchdog is required, according to the datasheet.
  90:/usr/lib/avr/include/avr/wdt.h **** */
  91:/usr/lib/avr/include/avr/wdt.h **** 
  92:/usr/lib/avr/include/avr/wdt.h **** /**
  93:/usr/lib/avr/include/avr/wdt.h ****    \ingroup avr_watchdog
  94:/usr/lib/avr/include/avr/wdt.h ****    Reset the watchdog timer.  When the watchdog timer is enabled,
  95:/usr/lib/avr/include/avr/wdt.h ****    a call to this instruction is required before the timer expires,
  96:/usr/lib/avr/include/avr/wdt.h ****    otherwise a watchdog-initiated device reset will occur. 
  97:/usr/lib/avr/include/avr/wdt.h **** */
  98:/usr/lib/avr/include/avr/wdt.h **** 
  99:/usr/lib/avr/include/avr/wdt.h **** #define wdt_reset() __asm__ __volatile__ ("wdr")
 100:/usr/lib/avr/include/avr/wdt.h **** 
 101:/usr/lib/avr/include/avr/wdt.h **** #ifndef __DOXYGEN__
 102:/usr/lib/avr/include/avr/wdt.h **** 
 103:/usr/lib/avr/include/avr/wdt.h **** #if defined(WDP3)
 104:/usr/lib/avr/include/avr/wdt.h **** # define _WD_PS3_MASK       _BV(WDP3)
 105:/usr/lib/avr/include/avr/wdt.h **** #else
 106:/usr/lib/avr/include/avr/wdt.h **** # define _WD_PS3_MASK       0x00
 107:/usr/lib/avr/include/avr/wdt.h **** #endif
 108:/usr/lib/avr/include/avr/wdt.h **** 
 109:/usr/lib/avr/include/avr/wdt.h **** #if defined(WDTCSR)
 110:/usr/lib/avr/include/avr/wdt.h **** #  define _WD_CONTROL_REG     WDTCSR
 111:/usr/lib/avr/include/avr/wdt.h **** #elif defined(WDTCR)
 112:/usr/lib/avr/include/avr/wdt.h **** #  define _WD_CONTROL_REG     WDTCR
 113:/usr/lib/avr/include/avr/wdt.h **** #else
 114:/usr/lib/avr/include/avr/wdt.h **** #  define _WD_CONTROL_REG     WDT
 115:/usr/lib/avr/include/avr/wdt.h **** #endif
 116:/usr/lib/avr/include/avr/wdt.h **** 
 117:/usr/lib/avr/include/avr/wdt.h **** #if defined(WDTOE)
 118:/usr/lib/avr/include/avr/wdt.h **** #define _WD_CHANGE_BIT      WDTOE
 119:/usr/lib/avr/include/avr/wdt.h **** #else
 120:/usr/lib/avr/include/avr/wdt.h **** #define _WD_CHANGE_BIT      WDCE
 121:/usr/lib/avr/include/avr/wdt.h **** #endif
 122:/usr/lib/avr/include/avr/wdt.h **** 
 123:/usr/lib/avr/include/avr/wdt.h **** #endif	/* !__DOXYGEN__ */
 124:/usr/lib/avr/include/avr/wdt.h **** 
 125:/usr/lib/avr/include/avr/wdt.h **** 
 126:/usr/lib/avr/include/avr/wdt.h **** /**
 127:/usr/lib/avr/include/avr/wdt.h ****    \ingroup avr_watchdog
 128:/usr/lib/avr/include/avr/wdt.h ****    Enable the watchdog timer, configuring it for expiry after
 129:/usr/lib/avr/include/avr/wdt.h ****    \c timeout (which is a combination of the \c WDP0 through
 130:/usr/lib/avr/include/avr/wdt.h ****    \c WDP2 bits to write into the \c WDTCR register; For those devices 
 131:/usr/lib/avr/include/avr/wdt.h ****    that have a \c WDTCSR register, it uses the combination of the \c WDP0 
 132:/usr/lib/avr/include/avr/wdt.h ****    through \c WDP3 bits).
 133:/usr/lib/avr/include/avr/wdt.h **** 
 134:/usr/lib/avr/include/avr/wdt.h ****    See also the symbolic constants \c WDTO_15MS et al.
 135:/usr/lib/avr/include/avr/wdt.h **** */
 136:/usr/lib/avr/include/avr/wdt.h **** 
 137:/usr/lib/avr/include/avr/wdt.h **** 
 138:/usr/lib/avr/include/avr/wdt.h **** #if defined(__AVR_XMEGA__)
 139:/usr/lib/avr/include/avr/wdt.h **** 
 140:/usr/lib/avr/include/avr/wdt.h **** #if defined (WDT_CTRLA) && !defined(RAMPD)
 141:/usr/lib/avr/include/avr/wdt.h **** 
 142:/usr/lib/avr/include/avr/wdt.h **** #define wdt_enable(timeout) \
 143:/usr/lib/avr/include/avr/wdt.h **** do { \
 144:/usr/lib/avr/include/avr/wdt.h **** uint8_t temp; \
 145:/usr/lib/avr/include/avr/wdt.h **** __asm__ __volatile__ ( \
 146:/usr/lib/avr/include/avr/wdt.h **** 	"wdr"									"\n\t" \
 147:/usr/lib/avr/include/avr/wdt.h **** 	"out %[ccp_reg], %[ioreg_cen_mask]"		"\n\t" \
 148:/usr/lib/avr/include/avr/wdt.h **** 	"lds %[tmp], %[wdt_reg]"				"\n\t" \
 149:/usr/lib/avr/include/avr/wdt.h **** 	"sbr %[tmp], %[wdt_enable_timeout]"		"\n\t" \
 150:/usr/lib/avr/include/avr/wdt.h **** 	"sts %[wdt_reg], %[tmp]"				"\n\t" \
 151:/usr/lib/avr/include/avr/wdt.h **** 	"1:lds %[tmp], %[wdt_status_reg]"		"\n\t" \
 152:/usr/lib/avr/include/avr/wdt.h **** 	"sbrc %[tmp], %[wdt_syncbusy_bit]"		"\n\t" \
 153:/usr/lib/avr/include/avr/wdt.h **** 	"rjmp 1b"								"\n\t" \
 154:/usr/lib/avr/include/avr/wdt.h **** 	: [tmp]					"=r" (temp) \
 155:/usr/lib/avr/include/avr/wdt.h **** 	: [ccp_reg]				"I"  (_SFR_IO_ADDR(CCP)), \
 156:/usr/lib/avr/include/avr/wdt.h **** 	  [ioreg_cen_mask]		"r"  ((uint8_t)CCP_IOREG_gc), \
 157:/usr/lib/avr/include/avr/wdt.h **** 	  [wdt_reg]				"n"  (_SFR_MEM_ADDR(WDT_CTRLA)), \
 158:/usr/lib/avr/include/avr/wdt.h **** 	  [wdt_enable_timeout]	"M"  (timeout), \
 159:/usr/lib/avr/include/avr/wdt.h **** 	  [wdt_status_reg]		"n"  (_SFR_MEM_ADDR(WDT_STATUS)), \
 160:/usr/lib/avr/include/avr/wdt.h **** 	  [wdt_syncbusy_bit]	"I"  (WDT_SYNCBUSY_bm) \
 161:/usr/lib/avr/include/avr/wdt.h **** ); \
 162:/usr/lib/avr/include/avr/wdt.h **** } while(0)
 163:/usr/lib/avr/include/avr/wdt.h **** 
 164:/usr/lib/avr/include/avr/wdt.h **** #define wdt_disable() \
 165:/usr/lib/avr/include/avr/wdt.h **** do { \
 166:/usr/lib/avr/include/avr/wdt.h **** uint8_t temp; \
 167:/usr/lib/avr/include/avr/wdt.h **** __asm__ __volatile__ (  \
 168:/usr/lib/avr/include/avr/wdt.h **** 	"wdr"								"\n\t" \
 169:/usr/lib/avr/include/avr/wdt.h **** 	"out %[ccp_reg], %[ioreg_cen_mask]" "\n\t" \
 170:/usr/lib/avr/include/avr/wdt.h **** 	"lds %[tmp], %[wdt_reg]"			"\n\t" \
 171:/usr/lib/avr/include/avr/wdt.h **** 	"cbr %[tmp], %[timeout_mask]"       "\n\t" \
 172:/usr/lib/avr/include/avr/wdt.h **** 	"sts %[wdt_reg], %[tmp]"			"\n\t" \
 173:/usr/lib/avr/include/avr/wdt.h ****     : [tmp]            "=r" (temp) \
 174:/usr/lib/avr/include/avr/wdt.h ****     : [ccp_reg]        "I" (_SFR_IO_ADDR(CCP)),       \
 175:/usr/lib/avr/include/avr/wdt.h ****       [ioreg_cen_mask] "r" ((uint8_t)CCP_IOREG_gc),   \
 176:/usr/lib/avr/include/avr/wdt.h ****       [wdt_reg]        "n" (_SFR_MEM_ADDR(WDT_CTRLA)),\
 177:/usr/lib/avr/include/avr/wdt.h ****       [timeout_mask]   "I" (WDT_PERIOD_gm) \
 178:/usr/lib/avr/include/avr/wdt.h **** ); \
 179:/usr/lib/avr/include/avr/wdt.h **** } while(0)
 180:/usr/lib/avr/include/avr/wdt.h **** 
 181:/usr/lib/avr/include/avr/wdt.h **** #else // defined (WDT_CTRLA) && !defined(RAMPD)
 182:/usr/lib/avr/include/avr/wdt.h **** 
 183:/usr/lib/avr/include/avr/wdt.h **** /*
 184:/usr/lib/avr/include/avr/wdt.h ****    wdt_enable(timeout) for xmega devices
 185:/usr/lib/avr/include/avr/wdt.h **** ** write signature (CCP_IOREG_gc) that enables change of protected I/O
 186:/usr/lib/avr/include/avr/wdt.h ****    registers to the CCP register
 187:/usr/lib/avr/include/avr/wdt.h **** ** At the same time,
 188:/usr/lib/avr/include/avr/wdt.h ****    1) set WDT change enable (WDT_CEN_bm)
 189:/usr/lib/avr/include/avr/wdt.h ****    2) enable WDT (WDT_ENABLE_bm)
 190:/usr/lib/avr/include/avr/wdt.h ****    3) set timeout (timeout)
 191:/usr/lib/avr/include/avr/wdt.h **** ** Synchronization starts when ENABLE bit of WDT is set. So, wait till it
 192:/usr/lib/avr/include/avr/wdt.h ****    finishes (SYNCBUSY of STATUS register is automatically cleared after the
 193:/usr/lib/avr/include/avr/wdt.h ****    sync is finished).
 194:/usr/lib/avr/include/avr/wdt.h **** */
 195:/usr/lib/avr/include/avr/wdt.h **** #define wdt_enable(timeout) \
 196:/usr/lib/avr/include/avr/wdt.h **** do { \
 197:/usr/lib/avr/include/avr/wdt.h **** uint8_t temp; \
 198:/usr/lib/avr/include/avr/wdt.h **** __asm__ __volatile__ (         \
 199:/usr/lib/avr/include/avr/wdt.h ****     "in __tmp_reg__, %[rampd]"              "\n\t" \
 200:/usr/lib/avr/include/avr/wdt.h ****     "out %[rampd], __zero_reg__"            "\n\t" \
 201:/usr/lib/avr/include/avr/wdt.h ****     "out %[ccp_reg], %[ioreg_cen_mask]"     "\n\t" \
 202:/usr/lib/avr/include/avr/wdt.h ****     "sts %[wdt_reg], %[wdt_enable_timeout]" "\n\t" \
 203:/usr/lib/avr/include/avr/wdt.h ****     "1:lds %[tmp], %[wdt_status_reg]"       "\n\t" \
 204:/usr/lib/avr/include/avr/wdt.h ****     "sbrc %[tmp], %[wdt_syncbusy_bit]"      "\n\t" \
 205:/usr/lib/avr/include/avr/wdt.h ****     "rjmp 1b"                               "\n\t" \
 206:/usr/lib/avr/include/avr/wdt.h ****     "out %[rampd], __tmp_reg__"             "\n\t" \
 207:/usr/lib/avr/include/avr/wdt.h ****     : [tmp]                "=r" (temp) \
 208:/usr/lib/avr/include/avr/wdt.h ****     : [rampd]              "I" (_SFR_IO_ADDR(RAMPD)),      \
 209:/usr/lib/avr/include/avr/wdt.h ****       [ccp_reg]            "I" (_SFR_IO_ADDR(CCP)),        \
 210:/usr/lib/avr/include/avr/wdt.h ****       [ioreg_cen_mask]     "r" ((uint8_t)CCP_IOREG_gc),     \
 211:/usr/lib/avr/include/avr/wdt.h ****       [wdt_reg]            "n" (_SFR_MEM_ADDR(WDT_CTRL)),   \
 212:/usr/lib/avr/include/avr/wdt.h ****       [wdt_enable_timeout] "r" ((uint8_t)(WDT_CEN_bm | WDT_ENABLE_bm | timeout)), \
 213:/usr/lib/avr/include/avr/wdt.h ****       [wdt_status_reg]     "n" (_SFR_MEM_ADDR(WDT_STATUS)), \
 214:/usr/lib/avr/include/avr/wdt.h ****       [wdt_syncbusy_bit]   "I" (WDT_SYNCBUSY_bm)            \
 215:/usr/lib/avr/include/avr/wdt.h ****     : "r0" \
 216:/usr/lib/avr/include/avr/wdt.h **** ); \
 217:/usr/lib/avr/include/avr/wdt.h **** } while(0)
 218:/usr/lib/avr/include/avr/wdt.h **** 
 219:/usr/lib/avr/include/avr/wdt.h **** #define wdt_disable() \
 220:/usr/lib/avr/include/avr/wdt.h **** __asm__ __volatile__ (  \
 221:/usr/lib/avr/include/avr/wdt.h ****     "in __tmp_reg__, %[rampd]"          "\n\t" \
 222:/usr/lib/avr/include/avr/wdt.h ****     "out %[rampd], __zero_reg__"        "\n\t" \
 223:/usr/lib/avr/include/avr/wdt.h ****     "out %[ccp_reg], %[ioreg_cen_mask]" "\n\t" \
 224:/usr/lib/avr/include/avr/wdt.h ****     "sts %[wdt_reg], %[disable_mask]"   "\n\t" \
 225:/usr/lib/avr/include/avr/wdt.h ****     "out %[rampd], __tmp_reg__"         "\n\t" \
 226:/usr/lib/avr/include/avr/wdt.h ****     : \
 227:/usr/lib/avr/include/avr/wdt.h ****     : [rampd]             "I" (_SFR_IO_ADDR(RAMPD)),    \
 228:/usr/lib/avr/include/avr/wdt.h ****       [ccp_reg]           "I" (_SFR_IO_ADDR(CCP)),      \
 229:/usr/lib/avr/include/avr/wdt.h ****       [ioreg_cen_mask]    "r" ((uint8_t)CCP_IOREG_gc),   \
 230:/usr/lib/avr/include/avr/wdt.h ****       [wdt_reg]           "n" (_SFR_MEM_ADDR(WDT_CTRL)), \
 231:/usr/lib/avr/include/avr/wdt.h ****       [disable_mask]      "r" ((uint8_t)((~WDT_ENABLE_bm) | WDT_CEN_bm)) \
 232:/usr/lib/avr/include/avr/wdt.h ****     : "r0" \
 233:/usr/lib/avr/include/avr/wdt.h **** );
 234:/usr/lib/avr/include/avr/wdt.h **** 
 235:/usr/lib/avr/include/avr/wdt.h **** #endif // defined (WDT_CTRLA) && !defined(RAMPD)
 236:/usr/lib/avr/include/avr/wdt.h **** 
 237:/usr/lib/avr/include/avr/wdt.h **** #elif defined(__AVR_TINY__)
 238:/usr/lib/avr/include/avr/wdt.h **** 
 239:/usr/lib/avr/include/avr/wdt.h **** #define wdt_enable(value) \
 240:/usr/lib/avr/include/avr/wdt.h **** __asm__ __volatile__ ( \
 241:/usr/lib/avr/include/avr/wdt.h ****     "in __tmp_reg__,__SREG__" "\n\t"  \
 242:/usr/lib/avr/include/avr/wdt.h ****     "cli" "\n\t"  \
 243:/usr/lib/avr/include/avr/wdt.h ****     "wdr" "\n\t"  \
 244:/usr/lib/avr/include/avr/wdt.h ****     "out %[CCPADDRESS],%[SIGNATURE]" "\n\t"  \
 245:/usr/lib/avr/include/avr/wdt.h ****     "out %[WDTREG],%[WDVALUE]" "\n\t"  \
 246:/usr/lib/avr/include/avr/wdt.h ****     "out __SREG__,__tmp_reg__" "\n\t"  \
 247:/usr/lib/avr/include/avr/wdt.h ****     : /* no outputs */  \
 248:/usr/lib/avr/include/avr/wdt.h ****     : [CCPADDRESS] "I" (_SFR_IO_ADDR(CCP)),  \
 249:/usr/lib/avr/include/avr/wdt.h ****       [SIGNATURE] "r" ((uint8_t)0xD8), \
 250:/usr/lib/avr/include/avr/wdt.h ****       [WDTREG] "I" (_SFR_IO_ADDR(_WD_CONTROL_REG)), \
 251:/usr/lib/avr/include/avr/wdt.h ****       [WDVALUE] "r" ((uint8_t)((value & 0x08 ? _WD_PS3_MASK : 0x00) \
 252:/usr/lib/avr/include/avr/wdt.h ****       | _BV(WDE) | (value & 0x07) )) \
 253:/usr/lib/avr/include/avr/wdt.h ****     : "r16" \
 254:/usr/lib/avr/include/avr/wdt.h **** )
 255:/usr/lib/avr/include/avr/wdt.h **** 
 256:/usr/lib/avr/include/avr/wdt.h **** #define wdt_disable() \
 257:/usr/lib/avr/include/avr/wdt.h **** do { \
 258:/usr/lib/avr/include/avr/wdt.h **** uint8_t temp_wd; \
 259:/usr/lib/avr/include/avr/wdt.h **** __asm__ __volatile__ ( \
 260:/usr/lib/avr/include/avr/wdt.h ****     "in __tmp_reg__,__SREG__" "\n\t"  \
 261:/usr/lib/avr/include/avr/wdt.h ****     "cli" "\n\t"  \
 262:/usr/lib/avr/include/avr/wdt.h ****     "wdr" "\n\t"  \
 263:/usr/lib/avr/include/avr/wdt.h ****     "out %[CCPADDRESS],%[SIGNATURE]" "\n\t"  \
 264:/usr/lib/avr/include/avr/wdt.h ****     "in  %[TEMP_WD],%[WDTREG]" "\n\t" \
 265:/usr/lib/avr/include/avr/wdt.h ****     "cbr %[TEMP_WD],%[WDVALUE]" "\n\t" \
 266:/usr/lib/avr/include/avr/wdt.h ****     "out %[WDTREG],%[TEMP_WD]" "\n\t" \
 267:/usr/lib/avr/include/avr/wdt.h ****     "out __SREG__,__tmp_reg__" "\n\t" \
 268:/usr/lib/avr/include/avr/wdt.h ****     : /*no output */ \
 269:/usr/lib/avr/include/avr/wdt.h ****     : [CCPADDRESS] "I" (_SFR_IO_ADDR(CCP)), \
 270:/usr/lib/avr/include/avr/wdt.h ****       [SIGNATURE] "r" ((uint8_t)0xD8), \
 271:/usr/lib/avr/include/avr/wdt.h ****       [WDTREG] "I" (_SFR_IO_ADDR(_WD_CONTROL_REG)), \
 272:/usr/lib/avr/include/avr/wdt.h ****       [TEMP_WD] "d" (temp_wd), \
 273:/usr/lib/avr/include/avr/wdt.h ****       [WDVALUE] "n" (1 << WDE) \
 274:/usr/lib/avr/include/avr/wdt.h ****     : "r16" \
 275:/usr/lib/avr/include/avr/wdt.h **** ); \
